(dp1
S'files'
p2
(dp3
S'_home_argriffi__local_lib_python2_7_site-packages_networkx_relabel'
p4
(dp5
S'index'
p6
(dp7
S'html_filename'
p8
S'_home_argriffi__local_lib_python2_7_site-packages_networkx_relabel.html'
p9
sS'name'
p10
S'/home/argriffi/.local/lib/python2.7/site-packages/networkx/relabel'
p11
sS'nums'
p12
ccopy_reg
_reconstructor
p13
(ccoverage.results
Numbers
p14
c__builtin__
object
p15
NtRp16
(dp17
S'n_files'
p18
I1
sS'n_branches'
p19
I38
sS'n_statements'
p20
I76
sS'n_excluded'
p21
I0
sS'n_partial_branches'
p22
I0
sS'n_missing'
p23
I69
sS'n_missing_branches'
p24
I38
sbssS'hash'
p25
S'\x9b\x00"\xc7\x13U@\x06\x94\xef\x87\xf4@\x9ap\xca'
p26
ssS'_home_argriffi__local_lib_python2_7_site-packages_networkx_readwrite_leda'
p27
(dp28
g6
(dp29
g8
S'_home_argriffi__local_lib_python2_7_site-packages_networkx_readwrite_leda.html'
p30
sg10
S'/home/argriffi/.local/lib/python2.7/site-packages/networkx/readwrite/leda'
p31
sg12
g13
(g14
g15
NtRp32
(dp33
g18
I1
sg19
I10
sg20
I34
sg21
I0
sg22
I0
sg23
I26
sg24
I10
sbssg25
S'X\x99\xd2;*\x92\xe1\x7f\x9cU\x00\x8c\xd1\xa0\xc4w'
p34
ssS'_usr_share_pyshared_pyparsing'
p35
(dp36
g6
(dp37
g8
S'_usr_share_pyshared_pyparsing.html'
p38
sg10
S'/usr/share/pyshared/pyparsing'
p39
sg12
g13
(g14
g15
NtRp40
(dp41
g18
I1
sg19
I938
sg20
I2252
sg21
I0
sg22
I80
sg23
I1375
sg24
I737
sbssg25
S'=\x82BW\x80\xce\xdf\x14\n\x8e\xfa7&o,\xed'
p42
ssS'_home_argriffi__local_lib_python2_7_site-packages_numpy_testing_numpytest'
p43
(dp44
g6
(dp45
g8
S'_home_argriffi__local_lib_python2_7_site-packages_numpy_testing_numpytest.html'
p46
sg10
S'/home/argriffi/.local/lib/python2.7/site-packages/numpy/testing/numpytest'
p47
sg12
g13
(g14
g15
NtRp48
(dp49
g18
I1
sg19
I8
sg20
I24
sg21
I0
sg22
I0
sg23
I19
sg24
I8
sbssg25
S'\x9b\x8c\x85p\x8f\xa1\xabcF\xf1\x03\x8b\xce\x91\xad\xad'
p50
ssS'_home_argriffi__local_lib_python2_7_site-packages_numpy_matrixlib_defmatrix'
p51
(dp52
g6
(dp53
g8
S'_home_argriffi__local_lib_python2_7_site-packages_numpy_matrixlib_defmatrix.html'
p54
sg10
S'/home/argriffi/.local/lib/python2.7/site-packages/numpy/matrixlib/defmatrix'
p55
sg12
g13
(g14
g15
NtRp56
(dp57
g18
I1
sg19
I126
sg20
I286
sg21
I0
sg22
I1
sg23
I223
sg24
I119
sbssg25
S"@\xc4\x8fq\xca\xe2y\xb3N\xb7\x0e\x83-'M\xa6"
p58
ssS'build_testenv_lib_python2_7_site-packages_nxmctree_tests_test_sampling'
p59
(dp60
g6
(dp61
g8
S'build_testenv_lib_python2_7_site-packages_nxmctree_tests_test_sampling.html'
p62
sg10
S'build/testenv/lib/python2.7/site-packages/nxmctree/tests/test_sampling'
p63
sg12
g13
(g14
g15
NtRp64
(dp65
g18
I1
sg19
I32
sg20
I95
sg21
I0
sg22
I2
sg23
I5
sg24
I2
sbssg25
S'\xd9\xe5z\xa2\xc8\xaf\x800\x9f\xe3\x97\x91\xd6\x82\xb1\xcb'
p66
ssS'_home_argriffi__local_lib_python2_7_site-packages_nose_plugins_allmodules'
p67
(dp68
g6
(dp69
g8
S'_home_argriffi__local_lib_python2_7_site-packages_nose_plugins_allmodules.html'
p70
sg10
S'/home/argriffi/.local/lib/python2.7/site-packages/nose/plugins/allmodules'
p71
sg12
g13
(g14
g15
NtRp72
(dp73
g18
I1
sg19
I2
sg20
I11
sg21
I0
sg22
I0
sg23
I3
sg24
I2
sbssg25
S'\x15.Ou\xe2\x11\x18\xca\x14F\x83?\x1c\xcf\xb3q'
p74
ssS'_home_argriffi__local_lib_python2_7_site-packages_numpy_lib___init__'
p75
(dp76
g6
(dp77
g8
S'_home_argriffi__local_lib_python2_7_site-packages_numpy_lib___init__.html'
p78
sg10
S'/home/argriffi/.local/lib/python2.7/site-packages/numpy/lib/__init__'
p79
sg12
g13
(g14
g15
NtRp80
(dp81
g18
I1
sg19
I0
sg20
I38
sg21
I0
sg22
I0
sg23
I0
sg24
I0
sbssg25
S'%\xb1]tl\xc1\xe2\xfcO\\\x92wt\xf8B\xae'
p82
ssS'_home_argriffi__local_lib_python2_7_site-packages_numpy_testing___init__'
p83
(dp84
g6
(dp85
g8
S'_home_argriffi__local_lib_python2_7_site-packages_numpy_testing___init__.html'
p86
sg10
S'/home/argriffi/.local/lib/python2.7/site-packages/numpy/testing/__init__'
p87
sg12
g13
(g14
g15
NtRp88
(dp89
g18
I1
sg19
I0
sg20
I8
sg21
I0
sg22
I0
sg23
I0
sg24
I0
sbssg25
S'\xce\x15>\x1c\xcf \xfb\xc7!\x1c\xe2z\x92\x07\xe9\x8c'
p90
ssS'_home_argriffi__local_lib_python2_7_site-packages_networkx_readwrite_gexf'
p91
(dp92
g6
(dp93
g8
S'_home_argriffi__local_lib_python2_7_site-packages_networkx_readwrite_gexf.html'
p94
sg10
S'/home/argriffi/.local/lib/python2.7/site-packages/networkx/readwrite/gexf'
p95
sg12
g13
(g14
g15
NtRp96
(dp97
g18
I1
sg19
I238
sg20
I581
sg21
I0
sg22
I0
sg23
I523
sg24
I236
sbssg25
S'\x83%\x10\x0c \x85$\xd0J^\x070s\xd8\xb9p'
p98
ssS'_home_argriffi__local_lib_python2_7_site-packages_numpy_matrixlib___init__'
p99
(dp100
g6
(dp101
g8
S'_home_argriffi__local_lib_python2_7_site-packages_numpy_matrixlib___init__.html'
p102
sg10
S'/home/argriffi/.local/lib/python2.7/site-packages/numpy/matrixlib/__init__'
p103
sg12
g13
(g14
g15
NtRp104
(dp105
g18
I1
sg19
I0
sg20
I6
sg21
I0
sg22
I0
sg23
I0
sg24
I0
sbssg25
S'\x88\xa1\xbfW\xaf\xbe*\xcc!\x8c{<\x1b\xa4IX'
p106
ssS'_home_argriffi__local_lib_python2_7_site-packages_networkx_external___init__'
p107
(dp108
g6
(dp109
g8
S'_home_argriffi__local_lib_python2_7_site-packages_networkx_external___init__.html'
p110
sg10
S'/home/argriffi/.local/lib/python2.7/site-packages/networkx/external/__init__'
p111
sg12
g13
(g14
g15
NtRp112
(dp113
g18
I1
sg19
I0
sg20
I0
sg21
I0
sg22
I0
sg23
I0
sg24
I0
sbssg25
S'\xbf/\x83L\xc9/\xc0\x9a\xf0p\xa8h\xff\x10T5'
p114
ssS'_home_argriffi__local_lib_python2_7_site-packages_networkx_algorithms_shortest_paths_weighted'
p115
(dp116
g6
(dp117
g8
S'_home_argriffi__local_lib_python2_7_site-packages_networkx_algorithms_shortest_paths_weighted.html'
p118
sg10
S'/home/argriffi/.local/lib/python2.7/site-packages/networkx/algorithms/shortest_paths/weighted'
p119
sg12
g13
(g14
g15
NtRp120
(dp121
g18
I1
sg19
I124
sg20
I208
sg21
I0
sg22
I0
sg23
I191
sg24
I124
sbssg25
S'\xf4\xf8(yx\xd1\xff\xca\xcaKeo\x9f\n\x8e\xbd'
p122
ssS'_home_argriffi__local_lib_python2_7_site-packages_networkx_generators_ego'
p123
(dp124
g6
(dp125
g8
S'_home_argriffi__local_lib_python2_7_site-packages_networkx_generators_ego.html'
p126
sg10
S'/home/argriffi/.local/lib/python2.7/site-packages/networkx/generators/ego'
p127
sg12
g13
(g14
g15
NtRp128
(dp129
g18
I1
sg19
I8
sg20
I15
sg21
I0
sg22
I0
sg23
I11
sg24
I8
sbssg25
S'w\xf7\xc78\x8b5\x85\xd1\xc8?\x88\xc7\xf7*R\xba'
p130
ssS'_home_argriffi__local_lib_python2_7_site-packages_nose_plugins_errorclass'
p131
(dp132
g6
(dp133
g8
S'_home_argriffi__local_lib_python2_7_site-packages_nose_plugins_errorclass.html'
p134
sg10
S'/home/argriffi/.local/lib/python2.7/site-packages/nose/plugins/errorclass'
p135
sg12
g13
(g14
g15
NtRp136
(dp137
g18
I1
sg19
I25
sg20
I65
sg21
I0
sg22
I4
sg23
I19
sg24
I8
sbssg25
S'\x95\x9c\x04\xbd\x047\xb3RJ6a\xba\xd4\x10\x0f\xb0'
p138
ssS'_home_argriffi__local_lib_python2_7_site-packages_nose_plugins_doctests'
p139
(dp140
g6
(dp141
g8
S'_home_argriffi__local_lib_python2_7_site-packages_nose_plugins_doctests.html'
p142
sg10
S'/home/argriffi/.local/lib/python2.7/site-packages/nose/plugins/doctests'
p143
sg12
g13
(g14
g15
NtRp144
(dp145
g18
I1
sg19
I73
sg20
I217
sg21
I0
sg22
I2
sg23
I145
sg24
I71
sbssg25
S'+8\n\xc78\x95\xd3\xe7U\xa3\x92h/\xd3\xf2t'
p146
ssS'_home_argriffi__local_lib_python2_7_site-packages_networkx_algorithms_operators___init__'
p147
(dp148
g6
(dp149
g8
S'_home_argriffi__local_lib_python2_7_site-packages_networkx_algorithms_operators___init__.html'
p150
sg10
S'/home/argriffi/.local/lib/python2.7/site-packages/networkx/algorithms/operators/__init__'
p151
sg12
g13
(g14
g15
NtRp152
(dp153
g18
I1
sg19
I0
sg20
I4
sg21
I0
sg22
I0
sg23
I0
sg24
I0
sbssg25
S'r2F\xbe\xd1\x89\xd4\x0e LT\x8eo.>\xd7'
p154
ssS'_home_argriffi__local_lib_python2_7_site-packages_networkx_algorithms_centrality_current_flow_closeness'
p155
(dp156
g6
(dp157
g8
S'_home_argriffi__local_lib_python2_7_site-packages_networkx_algorithms_centrality_current_flow_closeness.html'
p158
sg10
S'/home/argriffi/.local/lib/python2.7/site-packages/networkx/algorithms/centrality/current_flow_closeness'
p159
sg12
g13
(g14
g15
NtRp160
(dp161
g18
I1
sg19
I12
sg20
I35
sg21
I0
sg22
I0
sg23
I28
sg24
I12
sbssg25
S"\x02\x13\x03\xd5\xf9\xe86\xb1G\xb7\xfd\x952'x\xc3"
p162
ssS'_home_argriffi__local_lib_python2_7_site-packages_networkx_algorithms_components_weakly_connected'
p163
(dp164
g6
(dp165
g8
S'_home_argriffi__local_lib_python2_7_site-packages_networkx_algorithms_components_weakly_connected.html'
p166
sg10
S'/home/argriffi/.local/lib/python2.7/site-packages/networkx/algorithms/components/weakly_connected'
p167
sg12
g13
(g14
g15
NtRp168
(dp169
g18
I1
sg19
I18
sg20
I41
sg21
I0
sg22
I0
sg23
I30
sg24
I18
sbssg25
S'\xae\xe8>\n"<"s;D\x85\xdd\x19(\x11\xc5'
p170
ssS'_home_argriffi__local_lib_python2_7_site-packages_networkx_algorithms_assortativity_pairs'
p171
(dp172
g6
(dp173
g8
S'_home_argriffi__local_lib_python2_7_site-packages_networkx_algorithms_assortativity_pairs.html'
p174
sg10
S'/home/argriffi/.local/lib/python2.7/site-packages/networkx/algorithms/assortativity/pairs'
p175
sg12
g13
(g14
g15
NtRp176
(dp177
g18
I1
sg19
I24
sg20
I46
sg21
I0
sg22
I0
sg23
I38
sg24
I24
sbssg25
S'\xd5z\x80`\x00e8A\xb3er}Q2i\x92'
p178
ssS'_home_argriffi__local_lib_python2_7_site-packages_numpy_ma_extras'
p179
(dp180
g6
(dp181
g8
S'_home_argriffi__local_lib_python2_7_site-packages_numpy_ma_extras.html'
p182
sg10
S'/home/argriffi/.local/lib/python2.7/site-packages/numpy/ma/extras'
p183
sg12
g13
(g14
g15
NtRp184
(dp185
g18
I1
sg19
I267
sg20
I610
sg21
I0
sg22
I1
sg23
I527
sg24
I266
sbssg25
S'P\xc5\xc6x:\xf4q\xd0\xe4\xbbO2\x1c\x9c>='
p186
ssS'_home_argriffi__local_lib_python2_7_site-packages_numpy_core_fromnumeric'
p187
(dp188
g6
(dp189
g8
S'_home_argriffi__local_lib_python2_7_site-packages_numpy_core_fromnumeric.html'
p190
sg10
S'/home/argriffi/.local/lib/python2.7/site-packages/numpy/core/fromnumeric'
p191
sg12
g13
(g14
g15
NtRp192
(dp193
g18
I1
sg19
I38
sg20
I310
sg21
I0
sg22
I0
sg23
I246
sg24
I38
sbssg25
S"\xb0{;\x9f{\x06\x8e'\x1d\x98\xd8Q}F\x8c\xb7"
p194
ssS'_usr_share_python-support_python-pydot_pydot'
p195
(dp196
g6
(dp197
g8
S'_usr_share_python-support_python-pydot_pydot.html'
p198
sg10
S'/usr/share/python-support/python-pydot/pydot'
p199
sg12
g13
(g14
g15
NtRp200
(dp201
g18
I1
sg19
I309
sg20
I657
sg21
I0
sg22
I0
sg23
I537
sg24
I303
sbssg25
S'\x88\xa5\xf9\x1fZ\x87P\xec_\xefm\x94T\xc4}5'
p202
ssS'_home_argriffi__local_lib_python2_7_site-packages_networkx_algorithms_centrality_betweenness_subset'
p203
(dp204
g6
(dp205
g8
S'_home_argriffi__local_lib_python2_7_site-packages_networkx_algorithms_centrality_betweenness_subset.html'
p206
sg10
S'/home/argriffi/.local/lib/python2.7/site-packages/networkx/algorithms/centrality/betweenness_subset'
p207
sg12
g13
(g14
g15
NtRp208
(dp209
g18
I1
sg19
I50
sg20
I83
sg21
I0
sg22
I0
sg23
I71
sg24
I50
sbssg25
S'COQ\xcd\xdd\x94\xaf\xe0\xbb\x81H_m\xd3\xd1\xb9'
p210
ssS'_home_argriffi__local_lib_python2_7_site-packages_numpy_add_newdocs'
p211
(dp212
g6
(dp213
g8
S'_home_argriffi__local_lib_python2_7_site-packages_numpy_add_newdocs.html'
p214
sg10
S'/home/argriffi/.local/lib/python2.7/site-packages/numpy/add_newdocs'
p215
sg12
g13
(g14
g15
NtRp216
(dp217
g18
I1
sg19
I0
sg20
I279
sg21
I0
sg22
I0
sg23
I0
sg24
I0
sbssg25
S'c2\x87\x81n/\x15\xea\xdc\xdaG\x0bS4\xd7\xd6'
p218
ssS'_home_argriffi__local_lib_python2_7_site-packages_numpy_core_numerictypes'
p219
(dp220
g6
(dp221
g8
S'_home_argriffi__local_lib_python2_7_site-packages_numpy_core_numerictypes.html'
p222
sg10
S'/home/argriffi/.local/lib/python2.7/site-packages/numpy/core/numerictypes'
p223
sg12
g13
(g14
g15
NtRp224
(dp225
g18
I1
sg19
I149
sg20
I381
sg21
I0
sg22
I13
sg23
I122
sg24
I61
sbssg25
S'\xc9f\xcfM.\xf8\xe7r%\xf43\xd2uI\xeel'
p226
ssS'_home_argriffi__local_lib_python2_7_site-packages_networkx_release'
p227
(dp228
g6
(dp229
g8
S'_home_argriffi__local_lib_python2_7_site-packages_networkx_release.html'
p230
sg10
S'/home/argriffi/.local/lib/python2.7/site-packages/networkx/release'
p231
sg12
g13
(g14
g15
NtRp232
(dp233
g18
I1
sg19
I24
sg20
I89
sg21
I0
sg22
I7
sg23
I38
sg24
I17
sbssg25
S'\xa5L\xaa`\xd9)tw\xb0`\x1f{\xca\x84\xfd\xd3'
p234
ssS'_home_argriffi__local_lib_python2_7_site-packages_nose_inspector'
p235
(dp236
g6
(dp237
g8
S'_home_argriffi__local_lib_python2_7_site-packages_nose_inspector.html'
p238
sg10
S'/home/argriffi/.local/lib/python2.7/site-packages/nose/inspector'
p239
sg12
g13
(g14
g15
NtRp240
(dp241
g18
I1
sg19
I43
sg20
I122
sg21
I0
sg22
I0
sg23
I107
sg24
I43
sbssg25
S'\x02v}<\xc30\x15\xee \xaa\x12\xd9\x0b=\xb5\xda'
p242
ssS'_home_argriffi__local_lib_python2_7_site-packages_networkx_algorithms_bipartite_basic'
p243
(dp244
g6
(dp245
g8
S'_home_argriffi__local_lib_python2_7_site-packages_networkx_algorithms_bipartite_basic.html'
p246
sg10
S'/home/argriffi/.local/lib/python2.7/site-packages/networkx/algorithms/bipartite/basic'
p247
sg12
g13
(g14
g15
NtRp248
(dp249
g18
I1
sg19
I33
sg20
I81
sg21
I0
sg22
I0
sg23
I68
sg24
I33
sbssg25
S'>\x95Q\xcb\xf6\xc92S\xd4\ni\xc3O\xeb\xf1\x06'
p250
ssS'_home_argriffi__local_lib_python2_7_site-packages_networkx_algorithms_flow___init__'
p251
(dp252
g6
(dp253
g8
S'_home_argriffi__local_lib_python2_7_site-packages_networkx_algorithms_flow___init__.html'
p254
sg10
S'/home/argriffi/.local/lib/python2.7/site-packages/networkx/algorithms/flow/__init__'
p255
sg12
g13
(g14
g15
NtRp256
(dp257
g18
I1
sg19
I0
sg20
I2
sg21
I0
sg22
I0
sg23
I0
sg24
I0
sbssg25
S';\x00\x86<NX&\xe0\x86t\x91wn$\xedq'
p258
ssS'_home_argriffi__local_lib_python2_7_site-packages_numpy_core_info'
p259
(dp260
g6
(dp261
g8
S'_home_argriffi__local_lib_python2_7_site-packages_numpy_core_info.html'
p262
sg10
S'/home/argriffi/.local/lib/python2.7/site-packages/numpy/core/info'
p263
sg12
g13
(g14
g15
NtRp264
(dp265
g18
I1
sg19
I0
sg20
I3
sg21
I0
sg22
I0
sg23
I0
sg24
I0
sbssg25
S"\x00m\xdeS\xb9\xa9\x0e\x91\xc2\x93\x18\xd6\xd0\xcb'@"
p266
ssS'_home_argriffi__local_lib_python2_7_site-packages_networkx_generators_social'
p267
(dp268
g6
(dp269
g8
S'_home_argriffi__local_lib_python2_7_site-packages_networkx_generators_social.html'
p270
sg10
S'/home/argriffi/.local/lib/python2.7/site-packages/networkx/generators/social'
p271
sg12
g13
(g14
g15
NtRp272
(dp273
g18
I1
sg19
I6
sg20
I81
sg21
I0
sg22
I0
sg23
I75
sg24
I6
sbssg25
S'N\xc4o\xfb\x82\xf1~\x1d\x90\xb8g\xd2\x1eN\xcc\xf6'
p274
ssS'_home_argriffi__local_lib_python2_7_site-packages_networkx_algorithms_hierarchy'
p275
(dp276
g6
(dp277
g8
S'_home_argriffi__local_lib_python2_7_site-packages_networkx_algorithms_hierarchy.html'
p278
sg10
S'/home/argriffi/.local/lib/python2.7/site-packages/networkx/algorithms/hierarchy'
p279
sg12
g13
(g14
g15
NtRp280
(dp281
g18
I1
sg19
I4
sg20
I9
sg21
I0
sg22
I0
sg23
I4
sg24
I4
sbssg25
S'w\\\xddI0\xbeA\x1fU\xd6Lsc\xeb\xc0Q'
p282
ssS'_home_argriffi__local_lib_python2_7_site-packages_nose_plugins_prof'
p283
(dp284
g6
(dp285
g8
S'_home_argriffi__local_lib_python2_7_site-packages_nose_plugins_prof.html'
p286
sg10
S'/home/argriffi/.local/lib/python2.7/site-packages/nose/plugins/prof'
p287
sg12
g13
(g14
g15
NtRp288
(dp289
g18
I1
sg19
I24
sg20
I93
sg21
I0
sg22
I3
sg23
I56
sg24
I21
sbssg25
S'\x89]T\xa7\xfa\x0f\xda\x19\xf9\x96:\xb9\x10\xf1\x03\xb7'
p290
ssS'build_testenv_lib_python2_7_site-packages_nxmctree_dynamic_fset_lhood'
p291
(dp292
g6
(dp293
g8
S'build_testenv_lib_python2_7_site-packages_nxmctree_dynamic_fset_lhood.html'
p294
sg10
S'build/testenv/lib/python2.7/site-packages/nxmctree/dynamic_fset_lhood'
p295
sg12
g13
(g14
g15
NtRp296
(dp297
g18
I1
sg19
I48
sg20
I114
sg21
I0
sg22
I0
sg23
I0
sg24
I0
sbssg25
S'\xd1\xe26\xea\xc3\x9b\xa2L\xa8\xa2\x87\xee\x1c\x8c\x0f\xb1'
p298
ssS'_home_argriffi__local_lib_python2_7_site-packages_nose_failure'
p299
(dp300
g6
(dp301
g8
S'_home_argriffi__local_lib_python2_7_site-packages_nose_failure.html'
p302
sg10
S'/home/argriffi/.local/lib/python2.7/site-packages/nose/failure'
p303
sg12
g13
(g14
g15
NtRp304
(dp305
g18
I1
sg19
I2
sg20
I22
sg21
I0
sg22
I0
sg23
I11
sg24
I2
sbssg25
S'*Hn\xa9\xf1\x8cK\x04\xa9\x90\xb5 .I\x01N'
p306
ssS'_home_argriffi__local_lib_python2_7_site-packages_nose_util'
p307
(dp308
g6
(dp309
g8
S'_home_argriffi__local_lib_python2_7_site-packages_nose_util.html'
p310
sg10
S'/home/argriffi/.local/lib/python2.7/site-packages/nose/util'
p311
sg12
g13
(g14
g15
NtRp312
(dp313
g18
I1
sg19
I156
sg20
I350
sg21
I0
sg22
I19
sg23
I204
sg24
I118
sbssg25
S'_\x8dk"\xd5\x19XN;\xb3\x8csL\xcd\xacQ'
p314
ssS'_home_argriffi__local_lib_python2_7_site-packages_numpy___config__'
p315
(dp316
g6
(dp317
g8
S'_home_argriffi__local_lib_python2_7_site-packages_numpy___config__.html'
p318
sg10
S'/home/argriffi/.local/lib/python2.7/site-packages/numpy/__config__'
p319
sg12
g13
(g14
g15
NtRp320
(dp321
g18
I1
sg19
I10
sg20
I29
sg21
I0
sg22
I0
sg23
I12
sg24
I10
sbssg25
S'>\xc7\xd8\xff\xa7U\xe2\x136\xd1\xb4A\r%2\xf8'
p322
ssS'_home_argriffi__local_lib_python2_7_site-packages_networkx_readwrite_multiline_adjlist'
p323
(dp324
g6
(dp325
g8
S'_home_argriffi__local_lib_python2_7_site-packages_networkx_readwrite_multiline_adjlist.html'
p326
sg10
S'/home/argriffi/.local/lib/python2.7/site-packages/networkx/readwrite/multiline_adjlist'
p327
sg12
g13
(g14
g15
NtRp328
(dp329
g18
I1
sg19
I58
sg20
I120
sg21
I0
sg22
I0
sg23
I108
sg24
I56
sbssg25
S'A\xc0\x1e?\xfd \x1e\x1f\x86\x02h\xc6\xc0\xf2\x86\xe8'
p330
ssS'_home_argriffi__local_lib_python2_7_site-packages_networkx_linalg_spectrum'
p331
(dp332
g6
(dp333
g8
S'_home_argriffi__local_lib_python2_7_site-packages_networkx_linalg_spectrum.html'
p334
sg10
S'/home/argriffi/.local/lib/python2.7/site-packages/networkx/linalg/spectrum'
p335
sg12
g13
(g14
g15
NtRp336
(dp337
g18
I1
sg19
I0
sg20
I15
sg21
I0
sg22
I0
sg23
I9
sg24
I0
sbssg25
S'K\xddNs\x17x\x14\xe3\x0e\xe6\x1db44h\x18'
p338
ssS'_home_argriffi__local_lib_python2_7_site-packages_networkx_algorithms_cluster'
p339
(dp340
g6
(dp341
g8
S'_home_argriffi__local_lib_python2_7_site-packages_networkx_algorithms_cluster.html'
p342
sg10
S'/home/argriffi/.local/lib/python2.7/site-packages/networkx/algorithms/cluster'
p343
sg12
g13
(g14
g15
NtRp344
(dp345
g18
I1
sg19
I60
sg20
I95
sg21
I0
sg22
I0
sg23
I82
sg24
I60
sbssg25
S':\x99\x1d\xc1)H\x15\x96\x7fD\xe9{l/Z\x8f'
p346
ssS'_home_argriffi__local_lib_python2_7_site-packages_numpy_lib_utils'
p347
(dp348
g6
(dp349
g8
S'_home_argriffi__local_lib_python2_7_site-packages_numpy_lib_utils.html'
p350
sg10
S'/home/argriffi/.local/lib/python2.7/site-packages/numpy/lib/utils'
p351
sg12
g13
(g14
g15
NtRp352
(dp353
g18
I1
sg19
I224
sg20
I537
sg21
I0
sg22
I6
sg23
I462
sg24
I210
sbssg25
S'y\x14\x9c\x0ef\x0e\x1dt\xacS\x10\xa0\x8a\xbb\xb9\xf7'
p354
ssS'_home_argriffi__local_lib_python2_7_site-packages_networkx_generators_classic'
p355
(dp356
g6
(dp357
g8
S'_home_argriffi__local_lib_python2_7_site-packages_networkx_generators_classic.html'
p358
sg10
S'/home/argriffi/.local/lib/python2.7/site-packages/networkx/generators/classic'
p359
sg12
g13
(g14
g15
NtRp360
(dp361
g18
I1
sg19
I94
sg20
I201
sg21
I0
sg22
I0
sg23
I176
sg24
I94
sbssg25
S'77\x1d\x16T\xccp\xad\xd4\xd7\x93\x04`\xc4\x8b\xda'
p362
ssS'_home_argriffi__local_lib_python2_7_site-packages_networkx_algorithms_connectivity___init__'
p363
(dp364
g6
(dp365
g8
S'_home_argriffi__local_lib_python2_7_site-packages_networkx_algorithms_connectivity___init__.html'
p366
sg10
S'/home/argriffi/.local/lib/python2.7/site-packages/networkx/algorithms/connectivity/__init__'
p367
sg12
g13
(g14
g15
NtRp368
(dp369
g18
I1
sg19
I0
sg20
I2
sg21
I0
sg22
I0
sg23
I0
sg24
I0
sbssg25
S'\x9c\xfeeP\xf3\xa16a\x18\xddf%h\xec\x98\x07'
p370
ssS'_home_argriffi__local_lib_python2_7_site-packages_numpy_core__internal'
p371
(dp372
g6
(dp373
g8
S'_home_argriffi__local_lib_python2_7_site-packages_numpy_core__internal.html'
p374
sg10
S'/home/argriffi/.local/lib/python2.7/site-packages/numpy/core/_internal'
p375
sg12
g13
(g14
g15
NtRp376
(dp377
g18
I1
sg19
I152
sg20
I350
sg21
I0
sg22
I4
sg23
I296
sg24
I144
sbssg25
S'K\x97\x08\xc9\x1d+4DF\xff\xf6\x12\xa5\x1a\xa3X'
p378
ssS'_home_argriffi__local_lib_python2_7_site-packages_numpy_ma_core'
p379
(dp380
g6
(dp381
g8
S'_home_argriffi__local_lib_python2_7_site-packages_numpy_ma_core.html'
p382
sg10
S'/home/argriffi/.local/lib/python2.7/site-packages/numpy/ma/core'
p383
sg12
g13
(g14
g15
NtRp384
(dp385
g18
I1
sg19
I912
sg20
I2324
sg21
I0
sg22
I12
sg23
I1792
sg24
I898
sbssg25
S'!L\xc8\x1c\xa7fP-\x93d\xe7,\xd1@\xe2\x0c'
p386
ssS'_home_argriffi__local_lib_python2_7_site-packages_networkx_exception'
p387
(dp388
g6
(dp389
g8
S'_home_argriffi__local_lib_python2_7_site-packages_networkx_exception.html'
p390
sg10
S'/home/argriffi/.local/lib/python2.7/site-packages/networkx/exception'
p391
sg12
g13
(g14
g15
NtRp392
(dp393
g18
I1
sg19
I0
sg20
I10
sg21
I0
sg22
I0
sg23
I0
sg24
I0
sbssg25
S'\xed\x96\x80J\xb1E\xb5i\x10\x0b\x04\xca&\xe7,$'
p394
ssS'_home_argriffi__local_lib_python2_7_site-packages_numpy_lib_function_base'
p395
(dp396
g6
(dp397
g8
S'_home_argriffi__local_lib_python2_7_site-packages_numpy_lib_function_base.html'
p398
sg10
S'/home/argriffi/.local/lib/python2.7/site-packages/numpy/lib/function_base'
p399
sg12
g13
(g14
g15
NtRp400
(dp401
g18
I1
sg19
I417
sg20
I926
sg21
I0
sg22
I2
sg23
I850
sg24
I413
sbssg25
S'\xe7\xbf:\xc7\x0c\xb7\x02\x0f\xe8\x15\x01\x97\x8b{\xff\xe0'
p402
ssS'_home_argriffi__local_lib_python2_7_site-packages_numpy_version'
p403
(dp404
g6
(dp405
g8
S'_home_argriffi__local_lib_python2_7_site-packages_numpy_version.html'
p406
sg10
S'/home/argriffi/.local/lib/python2.7/site-packages/numpy/version'
p407
sg12
g13
(g14
g15
NtRp408
(dp409
g18
I1
sg19
I2
sg20
I7
sg21
I0
sg22
I1
sg23
I0
sg24
I1
sbssg25
S'7\x14\xc7wR\xde\x9e^G^o\xe8\x1a3\x1eL'
p410
ssS'_home_argriffi__local_lib_python2_7_site-packages_nose_tools_trivial'
p411
(dp412
g6
(dp413
g8
S'_home_argriffi__local_lib_python2_7_site-packages_nose_tools_trivial.html'
p414
sg10
S'/home/argriffi/.local/lib/python2.7/site-packages/nose/tools/trivial'
p415
sg12
g13
(g14
g15
NtRp416
(dp417
g18
I1
sg19
I10
sg20
I24
sg21
I0
sg22
I2
sg23
I5
sg24
I6
sbssg25
S"\x1d\xd0:\x1cW`'\xee\xbeR\x1e\xf6C\xbau\n"
p418
ssS'_home_argriffi__local_lib_python2_7_site-packages_networkx_classes_digraph'
p419
(dp420
g6
(dp421
g8
S'_home_argriffi__local_lib_python2_7_site-packages_networkx_classes_digraph.html'
p422
sg10
S'/home/argriffi/.local/lib/python2.7/site-packages/networkx/classes/digraph'
p423
sg12
g13
(g14
g15
NtRp424
(dp425
g18
I1
sg19
I134
sg20
I267
sg21
I0
sg22
I11
sg23
I161
sg24
I104
sbssg25
S'\xab\xe9\x03\x8d\x8dT|\xd1\xa5E\xedz\xb5J\x87\xd1'
p426
ssS'_home_argriffi__local_lib_python2_7_site-packages_networkx_algorithms_bipartite_centrality'
p427
(dp428
g6
(dp429
g8
S'_home_argriffi__local_lib_python2_7_site-packages_networkx_algorithms_bipartite_centrality.html'
p430
sg10
S'/home/argriffi/.local/lib/python2.7/site-packages/networkx/algorithms/bipartite/centrality'
p431
sg12
g13
(g14
g15
NtRp432
(dp433
g18
I1
sg19
I20
sg20
I54
sg21
I0
sg22
I0
sg23
I48
sg24
I20
sbssg25
S'\xe84d\x13j\xc3\xfd\xcce\x81k\x04\xed@\xd0\x1e'
p434
ssS'_home_argriffi__local_lib_python2_7_site-packages_numpy_lib_financial'
p435
(dp436
g6
(dp437
g8
S'_home_argriffi__local_lib_python2_7_site-packages_numpy_lib_financial.html'
p438
sg10
S'/home/argriffi/.local/lib/python2.7/site-packages/numpy/lib/financial'
p439
sg12
g13
(g14
g15
NtRp440
(dp441
g18
I1
sg19
I14
sg20
I112
sg21
I0
sg22
I1
sg23
I94
sg24
I13
sbssg25
S'\xa4\x04\xe8\n\xeb\xd3\xc7R\x80K8\x13)\xc3%\xa2'
p442
ssS'build_testenv_lib_python2_7_site-packages_nxmctree_brute_fset_feas'
p443
(dp444
g6
(dp445
g8
S'build_testenv_lib_python2_7_site-packages_nxmctree_brute_fset_feas.html'
p446
sg10
S'build/testenv/lib/python2.7/site-packages/nxmctree/brute_fset_feas'
p447
sg12
g13
(g14
g15
NtRp448
(dp449
g18
I1
sg19
I20
sg20
I31
sg21
I0
sg22
I0
sg23
I0
sg24
I0
sbssg25
S'\xfe\x0c\xfdzOWy\x9a\xf7h\xb1\x8b\xe6t\x1e6'
p450
ssS'_home_argriffi__local_lib_python2_7_site-packages_numpy_ctypeslib'
p451
(dp452
g6
(dp453
g8
S'_home_argriffi__local_lib_python2_7_site-packages_numpy_ctypeslib.html'
p454
sg10
S'/home/argriffi/.local/lib/python2.7/site-packages/numpy/ctypeslib'
p455
sg12
g13
(g14
g15
NtRp456
(dp457
g18
I1
sg19
I74
sg20
I187
sg21
I0
sg22
I2
sg23
I144
sg24
I68
sbssg25
S'\xe4S\xae\x0e^f\xaa\xcc\x9c\xce\x13\x910\x8a\xfa\xc8'
p458
ssS'_home_argriffi__local_lib_python2_7_site-packages_nose_tools_nontrivial'
p459
(dp460
g6
(dp461
g8
S'_home_argriffi__local_lib_python2_7_site-packages_nose_tools_nontrivial.html'
p462
sg10
S'/home/argriffi/.local/lib/python2.7/site-packages/nose/tools/nontrivial'
p463
sg12
g13
(g14
g15
NtRp464
(dp465
g18
I1
sg19
I14
sg20
I79
sg21
I0
sg22
I2
sg23
I56
sg24
I12
sbssg25
S'\xc51;r\x9c\xf9\xd81*\xa0\xbe\xd9\x02\xf6[\xd2'
p466
ssS'build_testenv_lib_python2_7_site-packages_nxmctree_dynamic_lmap_lhood'
p467
(dp468
g6
(dp469
g8
S'build_testenv_lib_python2_7_site-packages_nxmctree_dynamic_lmap_lhood.html'
p470
sg10
S'build/testenv/lib/python2.7/site-packages/nxmctree/dynamic_lmap_lhood'
p471
sg12
g13
(g14
g15
NtRp472
(dp473
g18
I1
sg19
I46
sg20
I114
sg21
I0
sg22
I0
sg23
I0
sg24
I0
sbssg25
S'W}\xc7x\xa6w\x13+\x7fx\x92\x9d|\xc7\xbd5'
p474
ssS'_home_argriffi__local_lib_python2_7_site-packages_networkx_algorithms_euler'
p475
(dp476
g6
(dp477
g8
S'_home_argriffi__local_lib_python2_7_site-packages_networkx_algorithms_euler.html'
p478
sg10
S'/home/argriffi/.local/lib/python2.7/site-packages/networkx/algorithms/euler'
p479
sg12
g13
(g14
g15
NtRp480
(dp481
g18
I1
sg19
I26
sg20
I44
sg21
I0
sg22
I0
sg23
I38
sg24
I26
sbssg25
S'\xa8r\x9d\xe1%\xa5\xe4\xe5\xd37\xec\x9d\xf6U\x02\xa8'
p482
ssS'_home_argriffi__local_lib_python2_7_site-packages_networkx_classes___init__'
p483
(dp484
g6
(dp485
g8
S'_home_argriffi__local_lib_python2_7_site-packages_networkx_classes___init__.html'
p486
sg10
S'/home/argriffi/.local/lib/python2.7/site-packages/networkx/classes/__init__'
p487
sg12
g13
(g14
g15
NtRp488
(dp489
g18
I1
sg19
I0
sg20
I5
sg21
I0
sg22
I0
sg23
I0
sg24
I0
sbssg25
S'\xf3n\xd5\x93\xa6N\xd8\xe8\x97q\x8c~\xb91\x94\xda'
p490
ssS'_home_argriffi__local_lib_python2_7_site-packages_networkx_generators_stochastic'
p491
(dp492
g6
(dp493
g8
S'_home_argriffi__local_lib_python2_7_site-packages_networkx_generators_stochastic.html'
p494
sg10
S'/home/argriffi/.local/lib/python2.7/site-packages/networkx/generators/stochastic'
p495
sg12
g13
(g14
g15
NtRp496
(dp497
g18
I1
sg19
I6
sg20
I18
sg21
I0
sg22
I0
sg23
I11
sg24
I6
sbssg25
S'\xd6\x08o\xa7\xfc\xd8\xce\xf4\xc1\xfc\x8e\xf0b\x86\xe9\xc0'
p498
ssS'_home_argriffi__local_lib_python2_7_site-packages_nose_tools___init__'
p499
(dp500
g6
(dp501
g8
S'_home_argriffi__local_lib_python2_7_site-packages_nose_tools___init__.html'
p502
sg10
S'/home/argriffi/.local/lib/python2.7/site-packages/nose/tools/__init__'
p503
sg12
g13
(g14
g15
NtRp504
(dp505
g18
I1
sg19
I0
sg20
I2
sg21
I0
sg22
I0
sg23
I0
sg24
I0
sbssg25
S'\x1c\xf1\x99\xab\xb6\xbb\x9a\x8d\x1e&)R[\xac\xc7\xf5'
p506
ssS'build_testenv_lib_python2_7_site-packages_nxmctree_brute_lmap_lhood'
p507
(dp508
g6
(dp509
g8
S'build_testenv_lib_python2_7_site-packages_nxmctree_brute_lmap_lhood.html'
p510
sg10
S'build/testenv/lib/python2.7/site-packages/nxmctree/brute_lmap_lhood'
p511
sg12
g13
(g14
g15
NtRp512
(dp513
g18
I1
sg19
I30
sg20
I53
sg21
I0
sg22
I0
sg23
I0
sg24
I0
sbssg25
S'\xf1k#7\xbc\xc2\xcb\xcdV\xaa\x07 }\x7fE\x95'
p514
ssS'_home_argriffi__local_lib_python2_7_site-packages_networkx_generators_line'
p515
(dp516
g6
(dp517
g8
S'_home_argriffi__local_lib_python2_7_site-packages_networkx_generators_line.html'
p518
sg10
S'/home/argriffi/.local/lib/python2.7/site-packages/networkx/generators/line'
p519
sg12
g13
(g14
g15
NtRp520
(dp521
g18
I1
sg19
I20
sg20
I51
sg21
I0
sg22
I0
sg23
I41
sg24
I20
sbssg25
S'\xa7\x85\xaf\x9fe\x87|uS\xcd\xb3\x99\xe9\xdaV2'
p522
ssS'_home_argriffi__local_lib_python2_7_site-packages_numpy_polynomial_hermite_e'
p523
(dp524
g6
(dp525
g8
S'_home_argriffi__local_lib_python2_7_site-packages_numpy_polynomial_hermite_e.html'
p526
sg10
S'/home/argriffi/.local/lib/python2.7/site-packages/numpy/polynomial/hermite_e'
p527
sg12
g13
(g14
g15
NtRp528
(dp529
g18
I1
sg19
I152
sg20
I379
sg21
I0
sg22
I0
sg23
I341
sg24
I152
sbssg25
S'%G\x9er\x1d`\xc0\x89\x82\xc4f\xee\xc2\xc7\xb9b'
p530
ssS'_home_argriffi__local_lib_python2_7_site-packages_numpy_random_info'
p531
(dp532
g6
(dp533
g8
S'_home_argriffi__local_lib_python2_7_site-packages_numpy_random_info.html'
p534
sg10
S'/home/argriffi/.local/lib/python2.7/site-packages/numpy/random/info'
p535
sg12
g13
(g14
g15
NtRp536
(dp537
g18
I1
sg19
I0
sg20
I3
sg21
I0
sg22
I0
sg23
I0
sg24
I0
sbssg25
S'\xe4\x0c\x1d\x0f\x10L9\x90\xe4a\xaa\xffpMN\x03'
p538
ssS'_home_argriffi__local_lib_python2_7_site-packages_networkx___init__'
p539
(dp540
g6
(dp541
g8
S'_home_argriffi__local_lib_python2_7_site-packages_networkx___init__.html'
p542
sg10
S'/home/argriffi/.local/lib/python2.7/site-packages/networkx/__init__'
p543
sg12
g13
(g14
g15
NtRp544
(dp545
g18
I1
sg19
I2
sg20
I33
sg21
I0
sg22
I1
sg23
I2
sg24
I1
sbssg25
S'N\x047\xe5\xb1\xb8}\x8f\xb33\xf3\xcdeC\xde\xa2'
p546
ssS'_home_argriffi__local_lib_python2_7_site-packages_nose_result'
p547
(dp548
g6
(dp549
g8
S'_home_argriffi__local_lib_python2_7_site-packages_nose_result.html'
p550
sg10
S'/home/argriffi/.local/lib/python2.7/site-packages/nose/result'
p551
sg12
g13
(g14
g15
NtRp552
(dp553
g18
I1
sg19
I56
sg20
I131
sg21
I0
sg22
I17
sg23
I43
sg24
I29
sbssg25
S'qw/\xfa\xce\xca\x90\x15K8\x8a<\xbb\xa5\xf2\xea'
p554
ssS'_home_argriffi__local_lib_python2_7_site-packages_networkx_algorithms_components_biconnected'
p555
(dp556
g6
(dp557
g8
S'_home_argriffi__local_lib_python2_7_site-packages_networkx_algorithms_components_biconnected.html'
p558
sg10
S'/home/argriffi/.local/lib/python2.7/site-packages/networkx/algorithms/components/biconnected'
p559
sg12
g13
(g14
g15
NtRp560
(dp561
g18
I1
sg19
I40
sg20
I71
sg21
I0
sg22
I0
sg23
I57
sg24
I40
sbssg25
S'-\x18\xb7\xa5Y\xcf\xe7L\x85\x16\x8a5\x966@x'
p562
ssS'_home_argriffi__local_lib_python2_7_site-packages_networkx_algorithms_traversal___init__'
p563
(dp564
g6
(dp565
g8
S'_home_argriffi__local_lib_python2_7_site-packages_networkx_algorithms_traversal___init__.html'
p566
sg10
S'/home/argriffi/.local/lib/python2.7/site-packages/networkx/algorithms/traversal/__init__'
p567
sg12
g13
(g14
g15
NtRp568
(dp569
g18
I1
sg19
I0
sg20
I4
sg21
I0
sg22
I0
sg23
I0
sg24
I0
sbssg25
S"\xfa7;\xba\x99\xa4(\xf9V\x88^'7\x9c\x14~"
p570
ssS'_home_argriffi__local_lib_python2_7_site-packages_networkx_algorithms_centrality_degree_alg'
p571
(dp572
g6
(dp573
g8
S'_home_argriffi__local_lib_python2_7_site-packages_networkx_algorithms_centrality_degree_alg.html'
p574
sg10
S'/home/argriffi/.local/lib/python2.7/site-packages/networkx/algorithms/centrality/degree_alg'
p575
sg12
g13
(g14
g15
NtRp576
(dp577
g18
I1
sg19
I10
sg20
I22
sg21
I0
sg22
I0
sg23
I16
sg24
I10
sbssg25
S'J*\xc8\x03ZB\xaf\xfb\xd4~\xb2\xf1\x1e\xfe\xc5\x86'
p578
ssS'_home_argriffi__local_lib_python2_7_site-packages_networkx_utils_rcm'
p579
(dp580
g6
(dp581
g8
S'_home_argriffi__local_lib_python2_7_site-packages_networkx_utils_rcm.html'
p582
sg10
S'/home/argriffi/.local/lib/python2.7/site-packages/networkx/utils/rcm'
p583
sg12
g13
(g14
g15
NtRp584
(dp585
g18
I1
sg19
I20
sg20
I45
sg21
I0
sg22
I0
sg23
I37
sg24
I18
sbssg25
S'\x91\xacr"#9\xcdn-\xb3\x04\xbb\xc6k\xd5\x1d'
p586
ssS'_home_argriffi__local_lib_python2_7_site-packages_networkx_algorithms_centrality_flow_matrix'
p587
(dp588
g6
(dp589
g8
S'_home_argriffi__local_lib_python2_7_site-packages_networkx_algorithms_centrality_flow_matrix.html'
p590
sg10
S'/home/argriffi/.local/lib/python2.7/site-packages/networkx/algorithms/centrality/flow_matrix'
p591
sg12
g13
(g14
g15
NtRp592
(dp593
g18
I1
sg19
I10
sg20
I96
sg21
I0
sg22
I0
sg23
I73
sg24
I10
sbssg25
S"{l\xe3'\xe9\xc62CZ\xd1\x8d\xb1\x94\x117\x96"
p594
ssS'_home_argriffi__local_lib_python2_7_site-packages_networkx_external_decorator___init__'
p595
(dp596
g6
(dp597
g8
S'_home_argriffi__local_lib_python2_7_site-packages_networkx_external_decorator___init__.html'
p598
sg10
S'/home/argriffi/.local/lib/python2.7/site-packages/networkx/external/decorator/__init__'
p599
sg12
g13
(g14
g15
NtRp600
(dp601
g18
I1
sg19
I2
sg20
I4
sg21
I0
sg22
I1
sg23
I1
sg24
I1
sbssg25
S'8B\xf5\x16\x8d\x1b\x1f\xc1\xad\xbd\x7f2\xb7\xb2Vu'
p602
ssS'_home_argriffi__local_lib_python2_7_site-packages_networkx_algorithms_core'
p603
(dp604
g6
(dp605
g8
S'_home_argriffi__local_lib_python2_7_site-packages_networkx_algorithms_core.html'
p606
sg10
S'/home/argriffi/.local/lib/python2.7/site-packages/networkx/algorithms/core'
p607
sg12
g13
(g14
g15
NtRp608
(dp609
g18
I1
sg19
I42
sg20
I63
sg21
I0
sg22
I0
sg23
I54
sg24
I42
sbssg25
S'\xe9\xd8\xb3\xa0b\xa6\x08d^\xf7\xc5\xec\x08\xde\xc5u'
p610
ssS'_home_argriffi__local_lib_python2_7_site-packages_numpy_lib_index_tricks'
p611
(dp612
g6
(dp613
g8
S'_home_argriffi__local_lib_python2_7_site-packages_numpy_lib_index_tricks.html'
p614
sg10
S'/home/argriffi/.local/lib/python2.7/site-packages/numpy/lib/index_tricks'
p615
sg12
g13
(g14
g15
NtRp616
(dp617
g18
I1
sg19
I90
sg20
I250
sg21
I0
sg22
I0
sg23
I185
sg24
I90
sbssg25
S'~\x07|\x81/\x0c\xd5xs\x00\x19\x1a\xff`\xa5\xeb'
p618
ssS'_home_argriffi__local_lib_python2_7_site-packages_networkx_readwrite___init__'
p619
(dp620
g6
(dp621
g8
S'_home_argriffi__local_lib_python2_7_site-packages_networkx_readwrite___init__.html'
p622
sg10
S'/home/argriffi/.local/lib/python2.7/site-packages/networkx/readwrite/__init__'
p623
sg12
g13
(g14
g15
NtRp624
(dp625
g18
I1
sg19
I0
sg20
I13
sg21
I0
sg22
I0
sg23
I0
sg24
I0
sbssg25
S'\xc5\r\xf6\xa4\xe5bG\x8b\xf8\x19\x0e\xc6\x8d\xfb\x83\xa4'
p626
ssS'build_testenv_lib_python2_7_site-packages_nxmctree_util'
p627
(dp628
g6
(dp629
g8
S'build_testenv_lib_python2_7_site-packages_nxmctree_util.html'
p630
sg10
S'build/testenv/lib/python2.7/site-packages/nxmctree/util'
p631
sg12
g13
(g14
g15
NtRp632
(dp633
g18
I1
sg19
I2
sg20
I12
sg21
I0
sg22
I0
sg23
I0
sg24
I0
sbssg25
S'\x9b\x9dT5]\xbc\x08\x10=|\xfcF\xcd\x03\x00\x02'
p634
ssS'_home_argriffi__local_lib_python2_7_site-packages_networkx_algorithms_connectivity_connectivity'
p635
(dp636
g6
(dp637
g8
S'_home_argriffi__local_lib_python2_7_site-packages_networkx_algorithms_connectivity_connectivity.html'
p638
sg10
S'/home/argriffi/.local/lib/python2.7/site-packages/networkx/algorithms/connectivity/connectivity'
p639
sg12
g13
(g14
g15
NtRp640
(dp641
g18
I1
sg19
I78
sg20
I139
sg21
I0
sg22
I0
sg23
I126
sg24
I78
sbssg25
S'<"\x18\x01Z\xa3jN\xae\xaf7\x06GC\x16n'
p642
ssS'_usr_share_pyshared_pygraphviz_graphviz'
p643
(dp644
g6
(dp645
g8
S'_usr_share_pyshared_pygraphviz_graphviz.html'
p646
sg10
S'/usr/share/pyshared/pygraphviz/graphviz'
p647
sg12
g13
(g14
g15
NtRp648
(dp649
g18
I1
sg19
I24
sg20
I112
sg21
I0
sg22
I0
sg23
I36
sg24
I24
sbssg25
S'\xeaW^\x91\xea:SB\x92]\xb4\xc3B\t\xac\x8f'
p650
ssS'_home_argriffi__local_lib_python2_7_site-packages_numpy_lib_arraysetops'
p651
(dp652
g6
(dp653
g8
S'_home_argriffi__local_lib_python2_7_site-packages_numpy_lib_arraysetops.html'
p654
sg10
S'/home/argriffi/.local/lib/python2.7/site-packages/numpy/lib/arraysetops'
p655
sg12
g13
(g14
g15
NtRp656
(dp657
g18
I1
sg19
I46
sg20
I99
sg21
I0
sg22
I0
sg23
I88
sg24
I46
sbssg25
S'\xe0;3_\xe7|ZH(\xa0Z\x00\xb3\x1f\xdf\t'
p658
ssS'_home_argriffi__local_lib_python2_7_site-packages_nose_plugins_testid'
p659
(dp660
g6
(dp661
g8
S'_home_argriffi__local_lib_python2_7_site-packages_nose_plugins_testid.html'
p662
sg10
S'/home/argriffi/.local/lib/python2.7/site-packages/nose/plugins/testid'
p663
sg12
g13
(g14
g15
NtRp664
(dp665
g18
I1
sg19
I40
sg20
I133
sg21
I0
sg22
I2
sg23
I95
sg24
I38
sbssg25
S'\x14i\x12\xc2\x7fEj\xe8\xd3\xe4\xd4O\x12vso'
p666
ssS'_home_argriffi__local_lib_python2_7_site-packages_numpy_lib_info'
p667
(dp668
g6
(dp669
g8
S'_home_argriffi__local_lib_python2_7_site-packages_numpy_lib_info.html'
p670
sg10
S'/home/argriffi/.local/lib/python2.7/site-packages/numpy/lib/info'
p671
sg12
g13
(g14
g15
NtRp672
(dp673
g18
I1
sg19
I0
sg20
I3
sg21
I0
sg22
I0
sg23
I0
sg24
I0
sbssg25
S'\x84\xa6\xa2[x\rZ\x0bT~a`\xf7\xee\x04\x12'
p674
ssS'_home_argriffi__local_lib_python2_7_site-packages_numpy_polynomial_polyutils'
p675
(dp676
g6
(dp677
g8
S'_home_argriffi__local_lib_python2_7_site-packages_numpy_polynomial_polyutils.html'
p678
sg10
S'/home/argriffi/.local/lib/python2.7/site-packages/numpy/polynomial/polyutils'
p679
sg12
g13
(g14
g15
NtRp680
(dp681
g18
I1
sg19
I24
sg20
I67
sg21
I0
sg22
I0
sg23
I48
sg24
I24
sbssg25
S'\xdd\xbeY\x99\xaaI\xc4A\xa9qD\xbe\xde\x15\x90\x1e'
p682
ssS'_home_argriffi__local_lib_python2_7_site-packages_networkx_drawing___init__'
p683
(dp684
g6
(dp685
g8
S'_home_argriffi__local_lib_python2_7_site-packages_networkx_drawing___init__.html'
p686
sg10
S'/home/argriffi/.local/lib/python2.7/site-packages/networkx/drawing/__init__'
p687
sg12
g13
(g14
g15
NtRp688
(dp689
g18
I1
sg19
I0
sg20
I15
sg21
I0
sg22
I0
sg23
I4
sg24
I0
sbssg25
S'\xd4\xb9\xd0\xfe1\x80\xd0_\x9a\xf5\xa0G/x4\x87'
p690
ssS'_home_argriffi__local_lib_python2_7_site-packages_numpy_polynomial_polytemplate'
p691
(dp692
g6
(dp693
g8
S'_home_argriffi__local_lib_python2_7_site-packages_numpy_polynomial_polytemplate.html'
p694
sg10
S'/home/argriffi/.local/lib/python2.7/site-packages/numpy/polynomial/polytemplate'
p695
sg12
g13
(g14
g15
NtRp696
(dp697
g18
I1
sg19
I0
sg20
I4
sg21
I0
sg22
I0
sg23
I0
sg24
I0
sbssg25
S'\x9a\x9b\x14\xd5\xe5\x01\x8f\x14\x90}Ne\x82\xe4rl'
p698
ssS'_home_argriffi__local_lib_python2_7_site-packages_nose_plugins_xunit'
p699
(dp700
g6
(dp701
g8
S'_home_argriffi__local_lib_python2_7_site-packages_nose_plugins_xunit.html'
p702
sg10
S'/home/argriffi/.local/lib/python2.7/site-packages/nose/plugins/xunit'
p703
sg12
g13
(g14
g15
NtRp704
(dp705
g18
I1
sg19
I24
sg20
I110
sg21
I0
sg22
I1
sg23
I72
sg24
I23
sbssg25
S'\xb0\x0f\x1f\xc4\xcet\x8b\x8c\xe2\xc3/\x16\xc7c}\xa7'
p706
ssS'_home_argriffi__local_lib_python2_7_site-packages_networkx_convert'
p707
(dp708
g6
(dp709
g8
S'_home_argriffi__local_lib_python2_7_site-packages_networkx_convert.html'
p710
sg10
S'/home/argriffi/.local/lib/python2.7/site-packages/networkx/convert'
p711
sg12
g13
(g14
g15
NtRp712
(dp713
g18
I1
sg19
I98
sg20
I141
sg21
I0
sg22
I0
sg23
I127
sg24
I98
sbssg25
S'lKMvjM1C\x15\xf7M\x15\xcct\xca\x1d'
p714
ssS'_home_argriffi__local_lib_python2_7_site-packages_networkx_linalg_attrmatrix'
p715
(dp716
g6
(dp717
g8
S'_home_argriffi__local_lib_python2_7_site-packages_networkx_linalg_attrmatrix.html'
p718
sg10
S'/home/argriffi/.local/lib/python2.7/site-packages/networkx/linalg/attrmatrix'
p719
sg12
g13
(g14
g15
NtRp720
(dp721
g18
I1
sg19
I66
sg20
I96
sg21
I0
sg22
I0
sg23
I89
sg24
I66
sbssg25
S'_h\xba\x950\xb6\xe7<\xa6\x97uj\xda\xae1\xc5'
p722
ssS'_home_argriffi__local_lib_python2_7_site-packages_networkx_algorithms_operators_all'
p723
(dp724
g6
(dp725
g8
S'_home_argriffi__local_lib_python2_7_site-packages_networkx_algorithms_operators_all.html'
p726
sg10
S'/home/argriffi/.local/lib/python2.7/site-packages/networkx/algorithms/operators/all'
p727
sg12
g13
(g14
g15
NtRp728
(dp729
g18
I1
sg19
I8
sg20
I32
sg21
I0
sg22
I0
sg23
I23
sg24
I8
sbssg25
S'}X\xe4[\xfb\x15AS\xc4\x95C\xe5\x8e\xf2;\xd8'
p730
ssS'_home_argriffi__local_lib_python2_7_site-packages_networkx_readwrite_edgelist'
p731
(dp732
g6
(dp733
g8
S'_home_argriffi__local_lib_python2_7_site-packages_networkx_readwrite_edgelist.html'
p734
sg10
S'/home/argriffi/.local/lib/python2.7/site-packages/networkx/readwrite/edgelist'
p735
sg12
g13
(g14
g15
NtRp736
(dp737
g18
I1
sg19
I32
sg20
I78
sg21
I0
sg22
I0
sg23
I65
sg24
I32
sbssg25
S'\xc9\xb2Z\xf1\xcf\xf1LO%\xba\x8c\xb7\xa7\xd3\xc2\xc3'
p738
ssS'_home_argriffi__local_lib_python2_7_site-packages_networkx_algorithms_bipartite_redundancy'
p739
(dp740
g6
(dp741
g8
S'_home_argriffi__local_lib_python2_7_site-packages_networkx_algorithms_bipartite_redundancy.html'
p742
sg10
S'/home/argriffi/.local/lib/python2.7/site-packages/networkx/algorithms/bipartite/redundancy'
p743
sg12
g13
(g14
g15
NtRp744
(dp745
g18
I1
sg19
I10
sg20
I20
sg21
I0
sg22
I0
sg23
I14
sg24
I10
sbssg25
S'\\\x1d\xd0?\xb4=\x07\xb3~\xf6g\xbe\xdb\xde\xc6\xe9'
p746
ssS'_home_argriffi__local_lib_python2_7_site-packages_numpy_compat__inspect'
p747
(dp748
g6
(dp749
g8
S'_home_argriffi__local_lib_python2_7_site-packages_numpy_compat__inspect.html'
p750
sg10
S'/home/argriffi/.local/lib/python2.7/site-packages/numpy/compat/_inspect'
p751
sg12
g13
(g14
g15
NtRp752
(dp753
g18
I1
sg19
I60
sg20
I106
sg21
I0
sg22
I7
sg23
I51
sg24
I31
sbssg25
S'\xcc\xf9*\xa1\xe4\xacb\xb8\x1c\xb0E\x0bq\xb1\x9d\xe9'
p754
ssS'_home_argriffi__local_lib_python2_7_site-packages_numpy_polynomial_laguerre'
p755
(dp756
g6
(dp757
g8
S'_home_argriffi__local_lib_python2_7_site-packages_numpy_polynomial_laguerre.html'
p758
sg10
S'/home/argriffi/.local/lib/python2.7/site-packages/numpy/polynomial/laguerre'
p759
sg12
g13
(g14
g15
NtRp760
(dp761
g18
I1
sg19
I150
sg20
I379
sg21
I0
sg22
I0
sg23
I341
sg24
I150
sbssg25
S'i4\xfdb\xc6Z\xae\xba\x93hi\xb22\xd2\x9a]'
p762
ssS'_home_argriffi__local_lib_python2_7_site-packages_numpy_linalg_info'
p763
(dp764
g6
(dp765
g8
S'_home_argriffi__local_lib_python2_7_site-packages_numpy_linalg_info.html'
p766
sg10
S'/home/argriffi/.local/lib/python2.7/site-packages/numpy/linalg/info'
p767
sg12
g13
(g14
g15
NtRp768
(dp769
g18
I1
sg19
I0
sg20
I2
sg21
I0
sg22
I0
sg23
I0
sg24
I0
sbssg25
S'\xce{\x8bu\x7f\x83\xa1I\xa3\xe9X\t2U\xd4\xd5'
p770
ssS'_home_argriffi__local_lib_python2_7_site-packages_networkx_algorithms_isomorphism_isomorphvf2'
p771
(dp772
g6
(dp773
g8
S'_home_argriffi__local_lib_python2_7_site-packages_networkx_algorithms_isomorphism_isomorphvf2.html'
p774
sg10
S'/home/argriffi/.local/lib/python2.7/site-packages/networkx/algorithms/isomorphism/isomorphvf2'
p775
sg12
g13
(g14
g15
NtRp776
(dp777
g18
I1
sg19
I276
sg20
I353
sg21
I0
sg22
I0
sg23
I326
sg24
I276
sbssg25
S'\x1d4\x8c\x05n\xf6\x84\xc3\xfb;.\x84\xf6\n\xea\t'
p778
ssS'_home_argriffi__local_lib_python2_7_site-packages_networkx_algorithms_bipartite___init__'
p779
(dp780
g6
(dp781
g8
S'_home_argriffi__local_lib_python2_7_site-packages_networkx_algorithms_bipartite___init__.html'
p782
sg10
S'/home/argriffi/.local/lib/python2.7/site-packages/networkx/algorithms/bipartite/__init__'
p783
sg12
g13
(g14
g15
NtRp784
(dp785
g18
I1
sg19
I0
sg20
I6
sg21
I0
sg22
I0
sg23
I0
sg24
I0
sbssg25
S'^\xa9\x93\x84\xa6\x14\xd1H,\x1f\xc5\x1b\x07`\x9f\x06'
p786
ssS'_home_argriffi__local_lib_python2_7_site-packages_networkx_algorithms_components_connected'
p787
(dp788
g6
(dp789
g8
S'_home_argriffi__local_lib_python2_7_site-packages_networkx_algorithms_components_connected.html'
p790
sg10
S'/home/argriffi/.local/lib/python2.7/site-packages/networkx/algorithms/components/connected'
p791
sg12
g13
(g14
g15
NtRp792
(dp793
g18
I1
sg19
I10
sg20
I27
sg21
I0
sg22
I0
sg23
I15
sg24
I10
sbssg25
S"\xaf\x903\x0c\xcf'_:\xd2\x05\xb7-\xe4A7\xe6"
p794
ssS'build_testenv_lib_python2_7_site-packages_nxmctree_sampling'
p795
(dp796
g6
(dp797
g8
S'build_testenv_lib_python2_7_site-packages_nxmctree_sampling.html'
p798
sg10
S'build/testenv/lib/python2.7/site-packages/nxmctree/sampling'
p799
sg12
g13
(g14
g15
NtRp800
(dp801
g18
I1
sg19
I14
sg20
I42
sg21
I0
sg22
I0
sg23
I0
sg24
I0
sbssg25
S'\x83\xc7\x029tNc[\xf8\xeb\xd5r\xfa\xd1\x9b\x13'
p802
ssS'_home_argriffi__local_lib_python2_7_site-packages_networkx_algorithms_chordal___init__'
p803
(dp804
g6
(dp805
g8
S'_home_argriffi__local_lib_python2_7_site-packages_networkx_algorithms_chordal___init__.html'
p806
sg10
S'/home/argriffi/.local/lib/python2.7/site-packages/networkx/algorithms/chordal/__init__'
p807
sg12
g13
(g14
g15
NtRp808
(dp809
g18
I1
sg19
I0
sg20
I1
sg21
I0
sg22
I0
sg23
I0
sg24
I0
sbssg25
S'\x9d\x06!:\x7f"H\xf5<.v\x1b\xefY48'
p810
ssS'_home_argriffi__local_lib_python2_7_site-packages_numpy_polynomial_hermite'
p811
(dp812
g6
(dp813
g8
S'_home_argriffi__local_lib_python2_7_site-packages_numpy_polynomial_hermite.html'
p814
sg10
S'/home/argriffi/.local/lib/python2.7/site-packages/numpy/polynomial/hermite'
p815
sg12
g13
(g14
g15
NtRp816
(dp817
g18
I1
sg19
I152
sg20
I382
sg21
I0
sg22
I0
sg23
I344
sg24
I152
sbssg25
S'\xf24\x95~9\x9a\xc7\xf2\xdb\x06\xcf\xac\xdb\xb5\xc3\xf3'
p818
ssS'_home_argriffi__local_lib_python2_7_site-packages_networkx_algorithms_isomorphism___init__'
p819
(dp820
g6
(dp821
g8
S'_home_argriffi__local_lib_python2_7_site-packages_networkx_algorithms_isomorphism___init__.html'
p822
sg10
S'/home/argriffi/.local/lib/python2.7/site-packages/networkx/algorithms/isomorphism/__init__'
p823
sg12
g13
(g14
g15
NtRp824
(dp825
g18
I1
sg19
I0
sg20
I3
sg21
I0
sg22
I0
sg23
I0
sg24
I0
sbssg25
S'Y\xeb\xee\x95$\xaf\xc8l\xc9\xb8h\xe6l\xeb\x1a\xde'
p826
ssS'_home_argriffi__local_lib_python2_7_site-packages_numpy_lib__datasource'
p827
(dp828
g6
(dp829
g8
S'_home_argriffi__local_lib_python2_7_site-packages_numpy_lib__datasource.html'
p830
sg10
S'/home/argriffi/.local/lib/python2.7/site-packages/numpy/lib/_datasource'
p831
sg12
g13
(g14
g15
NtRp832
(dp833
g18
I1
sg19
I60
sg20
I178
sg21
I0
sg22
I0
sg23
I140
sg24
I60
sbssg25
S'\x8aA\xdd\xb6sI\x1eo\x821J\tO%\xee\xa4'
p834
ssS'_home_argriffi__local_lib_python2_7_site-packages_numpy_lib_stride_tricks'
p835
(dp836
g6
(dp837
g8
S'_home_argriffi__local_lib_python2_7_site-packages_numpy_lib_stride_tricks.html'
p838
sg10
S'/home/argriffi/.local/lib/python2.7/site-packages/numpy/lib/stride_tricks'
p839
sg12
g13
(g14
g15
NtRp840
(dp841
g18
I1
sg19
I20
sg20
I47
sg21
I0
sg22
I0
sg23
I40
sg24
I20
sbssg25
S'\xd4\xe7\xd0\t\xc0ff\xc9\ty7Ozu\xe8N'
p842
ssS'_home_argriffi__local_lib_python2_7_site-packages_nose_plugins_skip'
p843
(dp844
g6
(dp845
g8
S'_home_argriffi__local_lib_python2_7_site-packages_nose_plugins_skip.html'
p846
sg10
S'/home/argriffi/.local/lib/python2.7/site-packages/nose/plugins/skip'
p847
sg12
g13
(g14
g15
NtRp848
(dp849
g18
I1
sg19
I4
sg20
I19
sg21
I0
sg22
I2
sg23
I5
sg24
I2
sbssg25
S'@\xc8S\xa5\xbc0\xeb\x8b-n\xaa=\xbb\x91#7'
p850
ssS'_home_argriffi__local_lib_python2_7_site-packages_networkx_algorithms_bipartite_projection'
p851
(dp852
g6
(dp853
g8
S'_home_argriffi__local_lib_python2_7_site-packages_networkx_algorithms_bipartite_projection.html'
p854
sg10
S'/home/argriffi/.local/lib/python2.7/site-packages/networkx/algorithms/bipartite/projection'
p855
sg12
g13
(g14
g15
NtRp856
(dp857
g18
I1
sg19
I80
sg20
I112
sg21
I0
sg22
I0
sg23
I102
sg24
I80
sbssg25
S'\xb6x\x97\x10\xeav\xd3n^\x85\x1ff\xd8(g\xab'
p858
ssS'_home_argriffi__local_lib_python2_7_site-packages_nose_loader'
p859
(dp860
g6
(dp861
g8
S'_home_argriffi__local_lib_python2_7_site-packages_nose_loader.html'
p862
sg10
S'/home/argriffi/.local/lib/python2.7/site-packages/nose/loader'
p863
sg12
g13
(g14
g15
NtRp864
(dp865
g18
I1
sg19
I178
sg20
I342
sg21
I0
sg22
I43
sg23
I162
sg24
I102
sbssg25
S'-\x19\xc6\x86\xc7\x14\xa8\xc3\x15\xb1\x80?\xcbz\x06\xfb'
p866
ssS'_home_argriffi__local_lib_python2_7_site-packages_numpy_polynomial_legendre'
p867
(dp868
g6
(dp869
g8
S'_home_argriffi__local_lib_python2_7_site-packages_numpy_polynomial_legendre.html'
p870
sg10
S'/home/argriffi/.local/lib/python2.7/site-packages/numpy/polynomial/legendre'
p871
sg12
g13
(g14
g15
NtRp872
(dp873
g18
I1
sg19
I154
sg20
I386
sg21
I0
sg22
I0
sg23
I348
sg24
I154
sbssg25
S'E\xe6U\xa1D\xd9#\xe0\x80\xa7\x81\xf7\xb4F\xe5\xd0'
p874
ssS'_home_argriffi__local_lib_python2_7_site-packages_networkx_algorithms_flow_mincost'
p875
(dp876
g6
(dp877
g8
S'_home_argriffi__local_lib_python2_7_site-packages_networkx_algorithms_flow_mincost.html'
p878
sg10
S'/home/argriffi/.local/lib/python2.7/site-packages/networkx/algorithms/flow/mincost'
p879
sg12
g13
(g14
g15
NtRp880
(dp881
g18
I1
sg19
I116
sg20
I208
sg21
I0
sg22
I0
sg23
I194
sg24
I114
sbssg25
S'\x00\\{\x9a\t\x96\x1a\x19.\xa4\xb9\xd9\xba\xed\xd5\xc8'
p882
ssS'_home_argriffi__local_lib_python2_7_site-packages_networkx_algorithms_link_analysis_pagerank_alg'
p883
(dp884
g6
(dp885
g8
S'_home_argriffi__local_lib_python2_7_site-packages_networkx_algorithms_link_analysis_pagerank_alg.html'
p886
sg10
S'/home/argriffi/.local/lib/python2.7/site-packages/networkx/algorithms/link_analysis/pagerank_alg'
p887
sg12
g13
(g14
g15
NtRp888
(dp889
g18
I1
sg19
I60
sg20
I126
sg21
I0
sg22
I0
sg23
I115
sg24
I60
sbssg25
S'\x8d\x0c\x94_\x0e\\R\xf7\x16*\x87\xeb/!/E'
p890
ssS'_home_argriffi__local_lib_python2_7_site-packages_networkx_algorithms_shortest_paths_generic'
p891
(dp892
g6
(dp893
g8
S'_home_argriffi__local_lib_python2_7_site-packages_networkx_algorithms_shortest_paths_generic.html'
p894
sg10
S'/home/argriffi/.local/lib/python2.7/site-packages/networkx/algorithms/shortest_paths/generic'
p895
sg12
g13
(g14
g15
NtRp896
(dp897
g18
I1
sg19
I62
sg20
I92
sg21
I0
sg22
I0
sg23
I83
sg24
I62
sbssg25
S'\xe2\xc6\x00[\x9c\xd2O\x8bGP\xf2\x10\xa1\xfd\xc2\xe1'
p898
ssS'_home_argriffi__local_lib_python2_7_site-packages_networkx_linalg_graphmatrix'
p899
(dp900
g6
(dp901
g8
S'_home_argriffi__local_lib_python2_7_site-packages_networkx_linalg_graphmatrix.html'
p902
sg10
S'/home/argriffi/.local/lib/python2.7/site-packages/networkx/linalg/graphmatrix'
p903
sg12
g13
(g14
g15
NtRp904
(dp905
g18
I1
sg19
I18
sg20
I42
sg21
I0
sg22
I0
sg23
I35
sg24
I18
sbssg25
S'\xe9\xa0\xd0zK\xfb\x15\xdc\x8f\x0eh;#\xe8\x0e\xdc'
p906
ssS'_home_argriffi__local_lib_python2_7_site-packages_networkx_utils___init__'
p907
(dp908
g6
(dp909
g8
S'_home_argriffi__local_lib_python2_7_site-packages_networkx_utils___init__.html'
p910
sg10
S'/home/argriffi/.local/lib/python2.7/site-packages/networkx/utils/__init__'
p911
sg12
g13
(g14
g15
NtRp912
(dp913
g18
I1
sg19
I0
sg20
I5
sg21
I0
sg22
I0
sg23
I0
sg24
I0
sbssg25
S'\xe6&I{d\x0bh\xcd\xef\xd3\x9a\xfd{t\xc0p'
p914
ssS'_home_argriffi__local_lib_python2_7_site-packages_numpy_polynomial_polynomial'
p915
(dp916
g6
(dp917
g8
S'_home_argriffi__local_lib_python2_7_site-packages_numpy_polynomial_polynomial.html'
p918
sg10
S'/home/argriffi/.local/lib/python2.7/site-packages/numpy/polynomial/polynomial'
p919
sg12
g13
(g14
g15
NtRp920
(dp921
g18
I1
sg19
I128
sg20
I302
sg21
I0
sg22
I0
sg23
I268
sg24
I128
sbssg25
S'4\xed\x1eP\xb3A\xff\x1a\xa6\xa3\x7fg\xf52\xa3\xf1'
p922
ssS'_home_argriffi__local_lib_python2_7_site-packages_networkx_readwrite_nx_shp'
p923
(dp924
g6
(dp925
g8
S'_home_argriffi__local_lib_python2_7_site-packages_networkx_readwrite_nx_shp.html'
p926
sg10
S'/home/argriffi/.local/lib/python2.7/site-packages/networkx/readwrite/nx_shp'
p927
sg12
g13
(g14
g15
NtRp928
(dp929
g18
I1
sg19
I33
sg20
I112
sg21
I0
sg22
I0
sg23
I106
sg24
I33
sbssg25
S'\xbf\xead\xf0\xe9\xa9c@\x1c\x04\xcd|O\xec2D'
p930
ssS'_usr_share_pyshared_pygraphviz_version'
p931
(dp932
g6
(dp933
g8
S'_usr_share_pyshared_pygraphviz_version.html'
p934
sg10
S'/usr/share/pyshared/pygraphviz/version'
p935
sg12
g13
(g14
g15
NtRp936
(dp937
g18
I1
sg19
I0
sg20
I3
sg21
I0
sg22
I0
sg23
I0
sg24
I0
sbssg25
S'\x14%\xff\xe5_\x08\x0c\x84c\x9d\xcd\xc2_X`l'
p938
ssS'_home_argriffi__local_lib_python2_7_site-packages_networkx_convert_matrix'
p939
(dp940
g6
(dp941
g8
S'_home_argriffi__local_lib_python2_7_site-packages_networkx_convert_matrix.html'
p942
sg10
S'/home/argriffi/.local/lib/python2.7/site-packages/networkx/convert_matrix'
p943
sg12
g13
(g14
g15
NtRp944
(dp945
g18
I1
sg19
I60
sg20
I138
sg21
I0
sg22
I0
sg23
I125
sg24
I60
sbssg25
S"N\x93\xb4\xd0oR\xa4\x98\x8c'scU\xd4N\x1d"
p946
ssS'build_testenv_lib_python2_7_site-packages_nxmctree_tests_test_likelihood'
p947
(dp948
g6
(dp949
g8
S'build_testenv_lib_python2_7_site-packages_nxmctree_tests_test_likelihood.html'
p950
sg10
S'build/testenv/lib/python2.7/site-packages/nxmctree/tests/test_likelihood'
p951
sg12
g13
(g14
g15
NtRp952
(dp953
g18
I1
sg19
I2
sg20
I29
sg21
I0
sg22
I0
sg23
I0
sg24
I0
sbssg25
S'L\xb4\xc7,\x11\x89\xf6H+-\xf3\x9a\xd2\x819\x94'
p954
ssS'_home_argriffi__local_lib_python2_7_site-packages_networkx_algorithms_bipartite_spectral'
p955
(dp956
g6
(dp957
g8
S'_home_argriffi__local_lib_python2_7_site-packages_networkx_algorithms_bipartite_spectral.html'
p958
sg10
S'/home/argriffi/.local/lib/python2.7/site-packages/networkx/algorithms/bipartite/spectral'
p959
sg12
g13
(g14
g15
NtRp960
(dp961
g18
I1
sg19
I4
sg20
I32
sg21
I0
sg22
I0
sg23
I26
sg24
I4
sbssg25
S'\x05M\x1a\xa7w\x88\xe93\xe7V\xa2\xa26\x86"\xb1'
p962
ssS'_home_argriffi__local_lib_python2_7_site-packages_networkx_readwrite_gml'
p963
(dp964
g6
(dp965
g8
S'_home_argriffi__local_lib_python2_7_site-packages_networkx_readwrite_gml.html'
p966
sg10
S'/home/argriffi/.local/lib/python2.7/site-packages/networkx/readwrite/gml'
p967
sg12
g13
(g14
g15
NtRp968
(dp969
g18
I1
sg19
I66
sg20
I162
sg21
I0
sg22
I0
sg23
I149
sg24
I66
sbssg25
S'Y\x87\xb4\xebbdw\x99>|\xf8p\\/\xd4\xea'
p970
ssS'_home_argriffi__local_lib_python2_7_site-packages_numpy_compat_py3k'
p971
(dp972
g6
(dp973
g8
S'_home_argriffi__local_lib_python2_7_site-packages_numpy_compat_py3k.html'
p974
sg10
S'/home/argriffi/.local/lib/python2.7/site-packages/numpy/compat/py3k'
p975
sg12
g13
(g14
g15
NtRp976
(dp977
g18
I1
sg19
I14
sg20
I57
sg21
I0
sg22
I1
sg23
I38
sg24
I13
sbssg25
S'Z\xc4\xf0\xc0;\x88C\xd7k\xe7\xe6L\x1c\xbc#\xd3'
p978
ssS'_home_argriffi__local_lib_python2_7_site-packages_nose_plugins_multiprocess'
p979
(dp980
g6
(dp981
g8
S'_home_argriffi__local_lib_python2_7_site-packages_nose_plugins_multiprocess.html'
p982
sg10
S'/home/argriffi/.local/lib/python2.7/site-packages/nose/plugins/multiprocess'
p983
sg12
g13
(g14
g15
NtRp984
(dp985
g18
I1
sg19
I168
sg20
I483
sg21
I0
sg22
I3
sg23
I403
sg24
I165
sbssg25
S'<\x8d\xef.@\xdc\xb7\x07\xa5\xa8\xd0K@\x80~\xc7'
p986
ssS'_home_argriffi__local_lib_python2_7_site-packages_numpy_lib_scimath'
p987
(dp988
g6
(dp989
g8
S'_home_argriffi__local_lib_python2_7_site-packages_numpy_lib_scimath.html'
p990
sg10
S'/home/argriffi/.local/lib/python2.7/site-packages/numpy/lib/scimath'
p991
sg12
g13
(g14
g15
NtRp992
(dp993
g18
I1
sg19
I8
sg20
I55
sg21
I0
sg22
I0
sg23
I35
sg24
I8
sbssg25
S'\x03h]\x0e\xe1\x8c=\x9c\xea\r\x9f&\x03\x17\xb3\x8e'
p994
ssS'_home_argriffi__local_lib_python2_7_site-packages_numpy_testing_decorators'
p995
(dp996
g6
(dp997
g8
S'_home_argriffi__local_lib_python2_7_site-packages_numpy_testing_decorators.html'
p998
sg10
S'/home/argriffi/.local/lib/python2.7/site-packages/numpy/testing/decorators'
p999
sg12
g13
(g14
g15
NtRp1000
(dp1001
g18
I1
sg19
I34
sg20
I70
sg21
I0
sg22
I7
sg23
I33
sg24
I23
sbssg25
S'\xe7\xdbn\xacF\x9a\x8c\x92\xbbH\xc5\x82\xb8\x1cN*'
p1002
ssS'_home_argriffi__local_lib_python2_7_site-packages_networkx_algorithms_swap'
p1003
(dp1004
g6
(dp1005
g8
S'_home_argriffi__local_lib_python2_7_site-packages_networkx_algorithms_swap.html'
p1006
sg10
S'/home/argriffi/.local/lib/python2.7/site-packages/networkx/algorithms/swap'
p1007
sg12
g13
(g14
g15
NtRp1008
(dp1009
g18
I1
sg19
I34
sg20
I82
sg21
I0
sg22
I0
sg23
I74
sg24
I34
sbssg25
S';\xee\xab\x0618\xeb\xeb3z\xb8\x87d\x02G\xe7'
p1010
ssS'_home_argriffi__local_lib_python2_7_site-packages_networkx_algorithms_boundary'
p1011
(dp1012
g6
(dp1013
g8
S'_home_argriffi__local_lib_python2_7_site-packages_networkx_algorithms_boundary.html'
p1014
sg10
S'/home/argriffi/.local/lib/python2.7/site-packages/networkx/algorithms/boundary'
p1015
sg12
g13
(g14
g15
NtRp1016
(dp1017
g18
I1
sg19
I10
sg20
I17
sg21
I0
sg22
I0
sg23
I13
sg24
I10
sbssg25
S'N\xbd(u\x97\x7f\xceJP\x83W\x8e\xac\xad\xbe\x85'
p1018
ssS'_home_argriffi__local_lib_python2_7_site-packages_numpy_lib_polynomial'
p1019
(dp1020
g6
(dp1021
g8
S'_home_argriffi__local_lib_python2_7_site-packages_numpy_lib_polynomial.html'
p1022
sg10
S'/home/argriffi/.local/lib/python2.7/site-packages/numpy/lib/polynomial'
p1023
sg12
g13
(g14
g15
NtRp1024
(dp1025
g18
I1
sg19
I172
sg20
I386
sg21
I0
sg22
I0
sg23
I328
sg24
I170
sbssg25
S'=\xcb\xcf\xca\xcf\xbb\x03\xf6\x8f\x86{<\xcb\xf5P\x88'
p1026
ssS'_home_argriffi__local_lib_python2_7_site-packages_nose_plugins_manager'
p1027
(dp1028
g6
(dp1029
g8
S'_home_argriffi__local_lib_python2_7_site-packages_nose_plugins_manager.html'
p1030
sg10
S'/home/argriffi/.local/lib/python2.7/site-packages/nose/plugins/manager'
p1031
sg12
g13
(g14
g15
NtRp1032
(dp1033
g18
I1
sg19
I91
sg20
I265
sg21
I0
sg22
I6
sg23
I125
sg24
I62
sbssg25
S'e0tD\x19\xab~\xb1m\x82\xf2\xb7N!?F'
p1034
ssS'_home_argriffi__local_lib_python2_7_site-packages_networkx_algorithms_components___init__'
p1035
(dp1036
g6
(dp1037
g8
S'_home_argriffi__local_lib_python2_7_site-packages_networkx_algorithms_components___init__.html'
p1038
sg10
S'/home/argriffi/.local/lib/python2.7/site-packages/networkx/algorithms/components/__init__'
p1039
sg12
g13
(g14
g15
NtRp1040
(dp1041
g18
I1
sg19
I0
sg20
I5
sg21
I0
sg22
I0
sg23
I0
sg24
I0
sbssg25
S'2!\r\xb1\xcc<3e`\xb7\xe0\x03\xd6\xc6*\xb3'
p1042
ssS'_home_argriffi__local_lib_python2_7_site-packages_networkx_readwrite_nx_yaml'
p1043
(dp1044
g6
(dp1045
g8
S'_home_argriffi__local_lib_python2_7_site-packages_networkx_readwrite_nx_yaml.html'
p1046
sg10
S'/home/argriffi/.local/lib/python2.7/site-packages/networkx/readwrite/nx_yaml'
p1047
sg12
g13
(g14
g15
NtRp1048
(dp1049
g18
I1
sg19
I0
sg20
I27
sg21
I0
sg22
I0
sg23
I18
sg24
I0
sbssg25
S'\xa2\xbfRI\x9c\xda\xc91>+\x1c\x0e\xae\xc0"\x8a'
p1050
ssS'_home_argriffi__local_lib_python2_7_site-packages_networkx_algorithms_assortativity_correlation'
p1051
(dp1052
g6
(dp1053
g8
S'_home_argriffi__local_lib_python2_7_site-packages_networkx_algorithms_assortativity_correlation.html'
p1054
sg10
S'/home/argriffi/.local/lib/python2.7/site-packages/networkx/algorithms/assortativity/correlation'
p1055
sg12
g13
(g14
g15
NtRp1056
(dp1057
g18
I1
sg19
I4
sg20
I62
sg21
I0
sg22
I0
sg23
I49
sg24
I4
sbssg25
S'\x9b\xe6\xb2\x01\xc2\xa6^\x9a5\xc1\xc0\xf0\xb0\xe4\xab\xd1'
p1058
ssS'_home_argriffi__local_lib_python2_7_site-packages_networkx_algorithms_simple_paths'
p1059
(dp1060
g6
(dp1061
g8
S'_home_argriffi__local_lib_python2_7_site-packages_networkx_algorithms_simple_paths.html'
p1062
sg10
S'/home/argriffi/.local/lib/python2.7/site-packages/networkx/algorithms/simple_paths'
p1063
sg12
g13
(g14
g15
NtRp1064
(dp1065
g18
I1
sg19
I40
sg20
I56
sg21
I0
sg22
I0
sg23
I50
sg24
I40
sbssg25
S'my\xe9\x15\xb4b\xe5Ac\xb4\xac\x07\x11@\x1a\x8e'
p1066
ssS'_home_argriffi__local_lib_python2_7_site-packages_nose_plugins_cover'
p1067
(dp1068
g6
(dp1069
g8
S'_home_argriffi__local_lib_python2_7_site-packages_nose_plugins_cover.html'
p1070
sg10
S'/home/argriffi/.local/lib/python2.7/site-packages/nose/plugins/cover'
p1071
sg12
g13
(g14
g15
NtRp1072
(dp1073
g18
I1
sg19
I56
sg20
I129
sg21
I0
sg22
I8
sg23
I76
sg24
I48
sbssg25
S'-\x821\xb6\x1fI\xe9b\x9c\xf29\x86zf\xd6Q'
p1074
ssS'_home_argriffi__local_lib_python2_7_site-packages_networkx_algorithms_clique'
p1075
(dp1076
g6
(dp1077
g8
S'_home_argriffi__local_lib_python2_7_site-packages_networkx_algorithms_clique.html'
p1078
sg10
S'/home/argriffi/.local/lib/python2.7/site-packages/networkx/algorithms/clique'
p1079
sg12
g13
(g14
g15
NtRp1080
(dp1081
g18
I1
sg19
I136
sg20
I242
sg21
I0
sg22
I0
sg23
I226
sg24
I136
sbssg25
S'\xfc\xc6T\xa64\x96U\xfa\x92o\xa8\xc6\xc9\x02\x92\x81'
p1082
ssS'_home_argriffi__local_lib_python2_7_site-packages_networkx_algorithms_centrality_betweenness'
p1083
(dp1084
g6
(dp1085
g8
S'_home_argriffi__local_lib_python2_7_site-packages_networkx_algorithms_centrality_betweenness.html'
p1086
sg10
S'/home/argriffi/.local/lib/python2.7/site-packages/networkx/algorithms/centrality/betweenness'
p1087
sg12
g13
(g14
g15
NtRp1088
(dp1089
g18
I1
sg19
I78
sg20
I149
sg21
I0
sg22
I0
sg23
I134
sg24
I78
sbssg25
S'\xe7C\x9e]\xbf\xfc\xb43~]\x18\xcc8\x12%q'
p1090
ssS'_home_argriffi__local_lib_python2_7_site-packages_networkx_generators_directed'
p1091
(dp1092
g6
(dp1093
g8
S'_home_argriffi__local_lib_python2_7_site-packages_networkx_generators_directed.html'
p1094
sg10
S'/home/argriffi/.local/lib/python2.7/site-packages/networkx/generators/directed'
p1095
sg12
g13
(g14
g15
NtRp1096
(dp1097
g18
I1
sg19
I60
sg20
I100
sg21
I0
sg22
I0
sg23
I90
sg24
I60
sbssg25
S'\xf1\xb9\x80\x92\xc4\x94%\x80\xa3\xd5\xa6\x9dv\x83\xe8\xb6'
p1098
ssS'_home_argriffi__local_lib_python2_7_site-packages_networkx_classes_graph'
p1099
(dp1100
g6
(dp1101
g8
S'_home_argriffi__local_lib_python2_7_site-packages_networkx_classes_graph.html'
p1102
sg10
S'/home/argriffi/.local/lib/python2.7/site-packages/networkx/classes/graph'
p1103
sg12
g13
(g14
g15
NtRp1104
(dp1105
g18
I1
sg19
I112
sg20
I302
sg21
I0
sg22
I8
sg23
I192
sg24
I94
sbssg25
S'\xb8\x17\n\x96\xf0\x04\xaa\xd0\xf2\x10\x9c\xc4(\xee\x8b\xb0'
p1106
ssS'_home_argriffi__local_lib_python2_7_site-packages_numpy_testing_noseclasses'
p1107
(dp1108
g6
(dp1109
g8
S'_home_argriffi__local_lib_python2_7_site-packages_numpy_testing_noseclasses.html'
p1110
sg10
S'/home/argriffi/.local/lib/python2.7/site-packages/numpy/testing/noseclasses'
p1111
sg12
g13
(g14
g15
NtRp1112
(dp1113
g18
I1
sg19
I64
sg20
I152
sg21
I0
sg22
I5
sg23
I81
sg24
I59
sbssg25
S"V\x13\xe1\xfa\xd9\xb2'\xbb\x01\x14\x8a\xd6\xe5\xd5\xcf\xd5"
p1114
ssS'_home_argriffi__local_lib_python2_7_site-packages_numpy_fft_helper'
p1115
(dp1116
g6
(dp1117
g8
S'_home_argriffi__local_lib_python2_7_site-packages_numpy_fft_helper.html'
p1118
sg10
S'/home/argriffi/.local/lib/python2.7/site-packages/numpy/fft/helper'
p1119
sg12
g13
(g14
g15
NtRp1120
(dp1121
g18
I1
sg19
I16
sg20
I51
sg21
I0
sg22
I0
sg23
I42
sg24
I16
sbssg25
S'I\xe90\xde\x01\xe9\xdcHJ\xeb\xaa\xd2%@\xe2\xb5'
p1122
ssS'_home_argriffi__local_lib_python2_7_site-packages_networkx_utils_random_sequence'
p1123
(dp1124
g6
(dp1125
g8
S'_home_argriffi__local_lib_python2_7_site-packages_networkx_utils_random_sequence.html'
p1126
sg10
S'/home/argriffi/.local/lib/python2.7/site-packages/networkx/utils/random_sequence'
p1127
sg12
g13
(g14
g15
NtRp1128
(dp1129
g18
I1
sg19
I28
sg20
I71
sg21
I0
sg22
I0
sg23
I56
sg24
I26
sbssg25
S'\x18\xbdL\xd4!\xe0t\x86}\xe3\xd0\x07\xf4\xbd\xe5\xca'
p1130
ssS'_home_argriffi__local_lib_python2_7_site-packages_nose_suite'
p1131
(dp1132
g6
(dp1133
g8
S'_home_argriffi__local_lib_python2_7_site-packages_nose_suite.html'
p1134
sg10
S'/home/argriffi/.local/lib/python2.7/site-packages/nose/suite'
p1135
sg12
g13
(g14
g15
NtRp1136
(dp1137
g18
I1
sg19
I172
sg20
I394
sg21
I0
sg22
I26
sg23
I137
sg24
I82
sbssg25
S'\xf6i\x9a#i\xcbN{\x1d\xc2\xf2\xab\x8eE\xba\x9c'
p1138
ssS'_home_argriffi__local_lib_python2_7_site-packages_numpy_random___init__'
p1139
(dp1140
g6
(dp1141
g8
S'_home_argriffi__local_lib_python2_7_site-packages_numpy_random___init__.html'
p1142
sg10
S'/home/argriffi/.local/lib/python2.7/site-packages/numpy/random/__init__'
p1143
sg12
g13
(g14
g15
NtRp1144
(dp1145
g18
I1
sg19
I0
sg20
I13
sg21
I0
sg22
I0
sg23
I1
sg24
I0
sbssg25
S'\x18\xd3\xb6W \x13\xfa\xe7Q}\xc9scd\xbb7'
p1146
ssS'_home_argriffi__local_lib_python2_7_site-packages_networkx_algorithms_bipartite_cluster'
p1147
(dp1148
g6
(dp1149
g8
S'_home_argriffi__local_lib_python2_7_site-packages_networkx_algorithms_bipartite_cluster.html'
p1150
sg10
S'/home/argriffi/.local/lib/python2.7/site-packages/networkx/algorithms/bipartite/cluster'
p1151
sg12
g13
(g14
g15
NtRp1152
(dp1153
g18
I1
sg19
I28
sg20
I57
sg21
I0
sg22
I0
sg23
I43
sg24
I28
sbssg25
S'Yl\xdc}-\x1c\xc7m\x17\x8bb\x02\xd95U\r'
p1154
ssS'_home_argriffi__local_lib_python2_7_site-packages_networkx_algorithms_link_analysis___init__'
p1155
(dp1156
g6
(dp1157
g8
S'_home_argriffi__local_lib_python2_7_site-packages_networkx_algorithms_link_analysis___init__.html'
p1158
sg10
S'/home/argriffi/.local/lib/python2.7/site-packages/networkx/algorithms/link_analysis/__init__'
p1159
sg12
g13
(g14
g15
NtRp1160
(dp1161
g18
I1
sg19
I0
sg20
I2
sg21
I0
sg22
I0
sg23
I0
sg24
I0
sbssg25
S'J\xe5p\xfe\xd4\xbb\xe4\x85\x82\xdc"\xe2>\xaa\x86\x81'
p1162
ssS'_home_argriffi__local_lib_python2_7_site-packages_numpy_core_records'
p1163
(dp1164
g6
(dp1165
g8
S'_home_argriffi__local_lib_python2_7_site-packages_numpy_core_records.html'
p1166
sg10
S'/home/argriffi/.local/lib/python2.7/site-packages/numpy/core/records'
p1167
sg12
g13
(g14
g15
NtRp1168
(dp1169
g18
I1
sg19
I178
sg20
I356
sg21
I0
sg22
I0
sg23
I318
sg24
I178
sbssg25
S'\x19\x0fi\xae9\x0c\x98X\xe8\xce\xc56\xc3@\x0f\x1d'
p1170
ssS'_home_argriffi__local_lib_python2_7_site-packages_networkx_algorithms_traversal_depth_first_search'
p1171
(dp1172
g6
(dp1173
g8
S'_home_argriffi__local_lib_python2_7_site-packages_networkx_algorithms_traversal_depth_first_search.html'
p1174
sg10
S'/home/argriffi/.local/lib/python2.7/site-packages/networkx/algorithms/traversal/depth_first_search'
p1175
sg12
g13
(g14
g15
NtRp1176
(dp1177
g18
I1
sg19
I32
sg20
I69
sg21
I0
sg22
I3
sg23
I36
sg24
I23
sbssg25
S'%\xa3uY\xe7xK\x1d\xc74\x96\xafS\xb5p)'
p1178
ssS'_home_argriffi__local_lib_python2_7_site-packages_nose_plugins_plugintest'
p1179
(dp1180
g6
(dp1181
g8
S'_home_argriffi__local_lib_python2_7_site-packages_nose_plugins_plugintest.html'
p1182
sg10
S'/home/argriffi/.local/lib/python2.7/site-packages/nose/plugins/plugintest'
p1183
sg12
g13
(g14
g15
NtRp1184
(dp1185
g18
I1
sg19
I36
sg20
I155
sg21
I0
sg22
I1
sg23
I111
sg24
I33
sbssg25
S'\xf4\xe3\x0eu\xf2\xc4\x05FO\x98=!\xb4\x12G\x97'
p1186
ssS'_home_argriffi__local_lib_python2_7_site-packages_nose_plugins_logcapture'
p1187
(dp1188
g6
(dp1189
g8
S'_home_argriffi__local_lib_python2_7_site-packages_nose_plugins_logcapture.html'
p1190
sg10
S'/home/argriffi/.local/lib/python2.7/site-packages/nose/plugins/logcapture'
p1191
sg12
g13
(g14
g15
NtRp1192
(dp1193
g18
I1
sg19
I32
sg20
I123
sg21
I0
sg22
I6
sg23
I36
sg24
I22
sbssg25
S'i\xfe\x13\xb8\xf4\x1c\x80V\x92\xe9@\x0c\xa6\xdf\x92i'
p1194
ssS'_home_argriffi__local_lib_python2_7_site-packages_networkx_generators_random_clustered'
p1195
(dp1196
g6
(dp1197
g8
S'_home_argriffi__local_lib_python2_7_site-packages_networkx_generators_random_clustered.html'
p1198
sg10
S'/home/argriffi/.local/lib/python2.7/site-packages/networkx/generators/random_clustered'
p1199
sg12
g13
(g14
g15
NtRp1200
(dp1201
g18
I1
sg19
I18
sg20
I36
sg21
I0
sg22
I0
sg23
I30
sg24
I18
sbssg25
S'\xb1\x16\x9d\xb2\xe1\xfc\xe1\xef\xf9\xe9\xcaz\x1f\xac\x91\xf8'
p1202
ssS'_home_argriffi__local_lib_python2_7_site-packages_networkx_algorithms_block'
p1203
(dp1204
g6
(dp1205
g8
S'_home_argriffi__local_lib_python2_7_site-packages_networkx_algorithms_block.html'
p1206
sg10
S'/home/argriffi/.local/lib/python2.7/site-packages/networkx/algorithms/block'
p1207
sg12
g13
(g14
g15
NtRp1208
(dp1209
g18
I1
sg19
I22
sg20
I41
sg21
I0
sg22
I0
sg23
I36
sg24
I22
sbssg25
S'\x83\x17\x1f\x11e\xf4\x82O\xac\x13\xe5K_q\x19\xd8'
p1210
ssS'_home_argriffi__local_lib_python2_7_site-packages_numpy_testing_utils'
p1211
(dp1212
g6
(dp1213
g8
S'_home_argriffi__local_lib_python2_7_site-packages_numpy_testing_utils.html'
p1214
sg10
S'/home/argriffi/.local/lib/python2.7/site-packages/numpy/testing/utils'
p1215
sg12
g13
(g14
g15
NtRp1216
(dp1217
g18
I1
sg19
I225
sg20
I570
sg21
I0
sg22
I25
sg23
I443
sg24
I192
sbssg25
S'a\xa7z\xc8\x9c\xba\xd0\xe4j\x7fx\xcbD\xdb^\x8e'
p1218
ssS'build_testenv_lib_python2_7_site-packages_nxmctree___init__'
p1219
(dp1220
g6
(dp1221
g8
S'build_testenv_lib_python2_7_site-packages_nxmctree___init__.html'
p1222
sg10
S'build/testenv/lib/python2.7/site-packages/nxmctree/__init__'
p1223
sg12
g13
(g14
g15
NtRp1224
(dp1225
g18
I1
sg19
I0
sg20
I14
sg21
I0
sg22
I0
sg23
I0
sg24
I0
sbssg25
S'\x95d\x9f\x14C\x04\xaf\x80\xe5\x9dA\xa0#}:\xe2'
p1226
ssS'_home_argriffi__local_lib_python2_7_site-packages_numpy_linalg_linalg'
p1227
(dp1228
g6
(dp1229
g8
S'_home_argriffi__local_lib_python2_7_site-packages_numpy_linalg_linalg.html'
p1230
sg10
S'/home/argriffi/.local/lib/python2.7/site-packages/numpy/linalg/linalg'
p1231
sg12
g13
(g14
g15
NtRp1232
(dp1233
g18
I1
sg19
I204
sg20
I534
sg21
I0
sg22
I0
sg23
I467
sg24
I204
sbssg25
S'3\xf3t\x9a\x1e~\xac\xe3\xef\xb3\x98\x0b\xf3l\x06/'
p1234
ssS'_home_argriffi__local_lib_python2_7_site-packages_networkx_classes_multidigraph'
p1235
(dp1236
g6
(dp1237
g8
S'_home_argriffi__local_lib_python2_7_site-packages_networkx_classes_multidigraph.html'
p1238
sg10
S'/home/argriffi/.local/lib/python2.7/site-packages/networkx/classes/multidigraph'
p1239
sg12
g13
(g14
g15
NtRp1240
(dp1241
g18
I1
sg19
I113
sg20
I173
sg21
I0
sg22
I0
sg23
I149
sg24
I113
sbssg25
S'\xbc\xd2\xd1\x033\x8a$\x8d7$\r)\x03%\xff*'
p1242
ssS'_home_argriffi__local_lib_python2_7_site-packages_networkx_tests_test'
p1243
(dp1244
g6
(dp1245
g8
S'_home_argriffi__local_lib_python2_7_site-packages_networkx_tests_test.html'
p1246
sg10
S'/home/argriffi/.local/lib/python2.7/site-packages/networkx/tests/test'
p1247
sg12
g13
(g14
g15
NtRp1248
(dp1249
g18
I1
sg19
I8
sg20
I19
sg21
I0
sg22
I1
sg23
I15
sg24
I7
sbssg25
S'\xf8\x14\xfd\x1c\xe54\xe7\xd17\x9e\xd0\xeb}s\xd8\x1a'
p1250
ssS'_home_argriffi__local_lib_python2_7_site-packages_numpy_core__methods'
p1251
(dp1252
g6
(dp1253
g8
S'_home_argriffi__local_lib_python2_7_site-packages_numpy_core__methods.html'
p1254
sg10
S'/home/argriffi/.local/lib/python2.7/site-packages/numpy/core/_methods'
p1255
sg12
g13
(g14
g15
NtRp1256
(dp1257
g18
I1
sg19
I30
sg20
I72
sg21
I0
sg22
I0
sg23
I54
sg24
I30
sbssg25
S'=\x0f\x1e\xbd{T\xf0A\xeb\x88i:\xa1*A\xc0'
p1258
ssS'_home_argriffi__local_lib_python2_7_site-packages_numpy_core_memmap'
p1259
(dp1260
g6
(dp1261
g8
S'_home_argriffi__local_lib_python2_7_site-packages_numpy_core_memmap.html'
p1262
sg10
S'/home/argriffi/.local/lib/python2.7/site-packages/numpy/core/memmap'
p1263
sg12
g13
(g14
g15
NtRp1264
(dp1265
g18
I1
sg19
I31
sg20
I83
sg21
I0
sg22
I0
sg23
I67
sg24
I31
sbssg25
S'\xefA\x11\x9e\x95\x95\xa7\xdf\xf26\x0e\rt\xc9\xd1\x00'
p1266
ssS'build_testenv_lib_python2_7_site-packages_nxmctree_history'
p1267
(dp1268
g6
(dp1269
g8
S'build_testenv_lib_python2_7_site-packages_nxmctree_history.html'
p1270
sg10
S'build/testenv/lib/python2.7/site-packages/nxmctree/history'
p1271
sg12
g13
(g14
g15
NtRp1272
(dp1273
g18
I1
sg19
I22
sg20
I43
sg21
I0
sg22
I0
sg23
I0
sg24
I0
sbssg25
S'\xfc.u\x98\xee6i\xe6\xe1\x94\xb5\xd0}\xf2L\xd5'
p1274
ssS'_home_argriffi__local_lib_python2_7_site-packages_networkx_algorithms_community___init__'
p1275
(dp1276
g6
(dp1277
g8
S'_home_argriffi__local_lib_python2_7_site-packages_networkx_algorithms_community___init__.html'
p1278
sg10
S'/home/argriffi/.local/lib/python2.7/site-packages/networkx/algorithms/community/__init__'
p1279
sg12
g13
(g14
g15
NtRp1280
(dp1281
g18
I1
sg19
I0
sg20
I1
sg21
I0
sg22
I0
sg23
I0
sg24
I0
sbssg25
S'SJ~N\xaa\x02k\xddDyI\xf8oZ\x84B'
p1282
ssS'_home_argriffi__local_lib_python2_7_site-packages_networkx_readwrite_adjlist'
p1283
(dp1284
g6
(dp1285
g8
S'_home_argriffi__local_lib_python2_7_site-packages_networkx_readwrite_adjlist.html'
p1286
sg10
S'/home/argriffi/.local/lib/python2.7/site-packages/networkx/readwrite/adjlist'
p1287
sg12
g13
(g14
g15
NtRp1288
(dp1289
g18
I1
sg19
I28
sg20
I67
sg21
I0
sg22
I0
sg23
I55
sg24
I28
sbssg25
S'\xb1\xcavNU\xa1G(\xa0g\x91g]\x0cD\x8a'
p1290
ssS'build_testenv_lib_python2_7_site-packages_nxmctree_dynamic_fset_feas'
p1291
(dp1292
g6
(dp1293
g8
S'build_testenv_lib_python2_7_site-packages_nxmctree_dynamic_fset_feas.html'
p1294
sg10
S'build/testenv/lib/python2.7/site-packages/nxmctree/dynamic_fset_feas'
p1295
sg12
g13
(g14
g15
NtRp1296
(dp1297
g18
I1
sg19
I34
sg20
I72
sg21
I0
sg22
I0
sg23
I0
sg24
I0
sbssg25
S'\xfbR\xdc+\x9bC\x16\xb1b\xcd\xa0\xc2\x84\xc1\x08\xbf'
p1298
ssS'_home_argriffi__local_lib_python2_7_site-packages_networkx_drawing_nx_agraph'
p1299
(dp1300
g6
(dp1301
g8
S'_home_argriffi__local_lib_python2_7_site-packages_networkx_drawing_nx_agraph.html'
p1302
sg10
S'/home/argriffi/.local/lib/python2.7/site-packages/networkx/drawing/nx_agraph'
p1303
sg12
g13
(g14
g15
NtRp1304
(dp1305
g18
I1
sg19
I70
sg20
I158
sg21
I0
sg22
I0
sg23
I142
sg24
I70
sbssg25
S'=\xc4\x08t\xd9E^\x1b\x97t\xe4.S]2('
p1306
ssS'_home_argriffi__local_lib_python2_7_site-packages_numpy_lib_arraypad'
p1307
(dp1308
g6
(dp1309
g8
S'_home_argriffi__local_lib_python2_7_site-packages_numpy_lib_arraypad.html'
p1310
sg10
S'/home/argriffi/.local/lib/python2.7/site-packages/numpy/lib/arraypad'
p1311
sg12
g13
(g14
g15
NtRp1312
(dp1313
g18
I1
sg19
I314
sg20
I383
sg21
I0
sg22
I0
sg23
I357
sg24
I314
sbssg25
S'\x8e4yoe^x\x93\x9e`\xfb8\xdc\xa3>\xa0'
p1314
ssS'_home_argriffi__local_lib_python2_7_site-packages_numpy__import_tools'
p1315
(dp1316
g6
(dp1317
g8
S'_home_argriffi__local_lib_python2_7_site-packages_numpy__import_tools.html'
p1318
sg10
S'/home/argriffi/.local/lib/python2.7/site-packages/numpy/_import_tools'
p1319
sg12
g13
(g14
g15
NtRp1320
(dp1321
g18
I1
sg19
I113
sg20
I224
sg21
I0
sg22
I1
sg23
I203
sg24
I112
sbssg25
S'\xdc\xb9wQFx\xbe\xb7M\xbfY\x0f\xabe\x88\xb7'
p1322
ssS'build_testenv_lib_python2_7_site-packages_nxmctree_nputil'
p1323
(dp1324
g6
(dp1325
g8
S'build_testenv_lib_python2_7_site-packages_nxmctree_nputil.html'
p1326
sg10
S'build/testenv/lib/python2.7/site-packages/nxmctree/nputil'
p1327
sg12
g13
(g14
g15
NtRp1328
(dp1329
g18
I1
sg19
I4
sg20
I23
sg21
I0
sg22
I0
sg23
I0
sg24
I0
sbssg25
S'i\xaa\x9b\xf8\x9d%\xc2\xf8\xf9\xfa\xebF\xfc|u{'
p1330
ssS'_home_argriffi__local_lib_python2_7_site-packages_networkx_algorithms_tree_recognition'
p1331
(dp1332
g6
(dp1333
g8
S'_home_argriffi__local_lib_python2_7_site-packages_networkx_algorithms_tree_recognition.html'
p1334
sg10
S'/home/argriffi/.local/lib/python2.7/site-packages/networkx/algorithms/tree/recognition'
p1335
sg12
g13
(g14
g15
NtRp1336
(dp1337
g18
I1
sg19
I6
sg20
I14
sg21
I0
sg22
I0
sg23
I8
sg24
I6
sbssg25
S'\xd9\xd1\r\t cX|\xa7t\x8c\x7f\x81\x88*\x9b'
p1338
ssS'_home_argriffi__local_lib_python2_7_site-packages_networkx_algorithms_shortest_paths_dense'
p1339
(dp1340
g6
(dp1341
g8
S'_home_argriffi__local_lib_python2_7_site-packages_networkx_algorithms_shortest_paths_dense.html'
p1342
sg10
S'/home/argriffi/.local/lib/python2.7/site-packages/networkx/algorithms/shortest_paths/dense'
p1343
sg12
g13
(g14
g15
NtRp1344
(dp1345
g18
I1
sg19
I18
sg20
I45
sg21
I0
sg22
I0
sg23
I37
sg24
I18
sbssg25
S'\xba\xd1X\xb9\x80\xcd\xed\x1b5}"\x98\xdco\xdc^'
p1346
ssS'_home_argriffi__local_lib_python2_7_site-packages_networkx_generators_bipartite'
p1347
(dp1348
g6
(dp1349
g8
S'_home_argriffi__local_lib_python2_7_site-packages_networkx_generators_bipartite.html'
p1350
sg10
S'/home/argriffi/.local/lib/python2.7/site-packages/networkx/generators/bipartite'
p1351
sg12
g13
(g14
g15
NtRp1352
(dp1353
g18
I1
sg19
I110
sg20
I223
sg21
I0
sg22
I0
sg23
I207
sg24
I110
sbssg25
S'\xa6\x98(\xf6s\xd9\x0b \xb8\xe4;~\x0bq^\xe8'
p1354
ssS'_home_argriffi__local_lib_python2_7_site-packages_networkx_generators_geometric'
p1355
(dp1356
g6
(dp1357
g8
S'_home_argriffi__local_lib_python2_7_site-packages_networkx_generators_geometric.html'
p1358
sg10
S'/home/argriffi/.local/lib/python2.7/site-packages/networkx/generators/geometric'
p1359
sg12
g13
(g14
g15
NtRp1360
(dp1361
g18
I1
sg19
I72
sg20
I111
sg21
I0
sg22
I0
sg23
I97
sg24
I72
sbssg25
S'\xff\x98Yx\xc0\xdb9\xdf\xf5n\x8c\x9f(I\x13t'
p1362
ssS'_usr_share_pyshared_pygraphviz_agraph'
p1363
(dp1364
g6
(dp1365
g8
S'_usr_share_pyshared_pygraphviz_agraph.html'
p1366
sg10
S'/usr/share/pyshared/pygraphviz/agraph'
p1367
sg12
g13
(g14
g15
NtRp1368
(dp1369
g18
I1
sg19
I270
sg20
I844
sg21
I0
sg22
I1
sg23
I697
sg24
I265
sbssg25
S',\x08\r\'\x9cK\xc9_\xfe\xf6u\x16(\xe0^"'
p1370
ssS'_home_argriffi__local_lib_python2_7_site-packages_numpy_testing_nosetester'
p1371
(dp1372
g6
(dp1373
g8
S'_home_argriffi__local_lib_python2_7_site-packages_numpy_testing_nosetester.html'
p1374
sg10
S'/home/argriffi/.local/lib/python2.7/site-packages/numpy/testing/nosetester'
p1375
sg12
g13
(g14
g15
NtRp1376
(dp1377
g18
I1
sg19
I60
sg20
I159
sg21
I0
sg22
I18
sg23
I58
sg24
I38
sbssg25
S'\xdf\x19\xc4\xb8\t\x90\x9a \x86\x93\x894_\xab\xa6\x86'
p1378
ssS'_home_argriffi__local_lib_python2_7_site-packages_nose_core'
p1379
(dp1380
g6
(dp1381
g8
S'_home_argriffi__local_lib_python2_7_site-packages_nose_core.html'
p1382
sg10
S'/home/argriffi/.local/lib/python2.7/site-packages/nose/core'
p1383
sg12
g13
(g14
g15
NtRp1384
(dp1385
g18
I1
sg19
I58
sg20
I156
sg21
I0
sg22
I17
sg23
I67
sg24
I41
sbssg25
S"\x86?\xed'\xea\xd2\x185\xa2\xacp\xbf\x92T\x92\xe2"
p1386
ssS'_home_argriffi__local_lib_python2_7_site-packages_networkx_algorithms_centrality_communicability_alg'
p1387
(dp1388
g6
(dp1389
g8
S'_home_argriffi__local_lib_python2_7_site-packages_networkx_algorithms_centrality_communicability_alg.html'
p1390
sg10
S'/home/argriffi/.local/lib/python2.7/site-packages/networkx/algorithms/centrality/communicability_alg'
p1391
sg12
g13
(g14
g15
NtRp1392
(dp1393
g18
I1
sg19
I20
sg20
I110
sg21
I0
sg22
I0
sg23
I92
sg24
I20
sbssg25
S'M\x9b\x0c\x0c7\xa6\xa2z\x1f\x14\xde\x04."\x91\x8a'
p1394
ssS'_home_argriffi__local_lib_python2_7_site-packages_networkx_generators_intersection'
p1395
(dp1396
g6
(dp1397
g8
S'_home_argriffi__local_lib_python2_7_site-packages_networkx_generators_intersection.html'
p1398
sg10
S'/home/argriffi/.local/lib/python2.7/site-packages/networkx/generators/intersection'
p1399
sg12
g13
(g14
g15
NtRp1400
(dp1401
g18
I1
sg19
I10
sg20
I25
sg21
I0
sg22
I0
sg23
I17
sg24
I10
sbssg25
S'\rZ\xad\x96\xe1\x93\x01\xa7 \xf1\xc8\x9b\xd67\xb4!'
p1402
ssS'_home_argriffi__local_lib_python2_7_site-packages_networkx_generators_hybrid'
p1403
(dp1404
g6
(dp1405
g8
S'_home_argriffi__local_lib_python2_7_site-packages_networkx_generators_hybrid.html'
p1406
sg10
S'/home/argriffi/.local/lib/python2.7/site-packages/networkx/generators/hybrid'
p1407
sg12
g13
(g14
g15
NtRp1408
(dp1409
g18
I1
sg19
I36
sg20
I73
sg21
I0
sg22
I0
sg23
I67
sg24
I36
sbssg25
S'T\x03M\xaa\xb9\xf4\x0f\x9f\xe6N\xbf\xe1a\xbeA\x80'
p1410
ssS'_home_argriffi__local_lib_python2_7_site-packages_networkx_readwrite_gpickle'
p1411
(dp1412
g6
(dp1413
g8
S'_home_argriffi__local_lib_python2_7_site-packages_networkx_readwrite_gpickle.html'
p1414
sg10
S'/home/argriffi/.local/lib/python2.7/site-packages/networkx/readwrite/gpickle'
p1415
sg12
g13
(g14
g15
NtRp1416
(dp1417
g18
I1
sg19
I0
sg20
I15
sg21
I0
sg22
I0
sg23
I6
sg24
I0
sbssg25
S'*\xca\x8f\x0b[\xd0?\xa4"\xa0\xbb}2\xb1_\x08'
p1418
ssS'_home_argriffi__local_lib_python2_7_site-packages_numpy_core_numeric'
p1419
(dp1420
g6
(dp1421
g8
S'_home_argriffi__local_lib_python2_7_site-packages_numpy_core_numeric.html'
p1422
sg10
S'/home/argriffi/.local/lib/python2.7/site-packages/numpy/core/numeric'
p1423
sg12
g13
(g14
g15
NtRp1424
(dp1425
g18
I1
sg19
I166
sg20
I526
sg21
I0
sg22
I11
sg23
I325
sg24
I149
sbssg25
S'\xf7\xa3\xad!c\xfc\xa3\xc4\xa6\x08\xf0\xf7[\x17,W'
p1426
ssS'_home_argriffi__local_lib_python2_7_site-packages_networkx_generators_random_graphs'
p1427
(dp1428
g6
(dp1429
g8
S'_home_argriffi__local_lib_python2_7_site-packages_networkx_generators_random_graphs.html'
p1430
sg10
S'/home/argriffi/.local/lib/python2.7/site-packages/networkx/generators/random_graphs'
p1431
sg12
g13
(g14
g15
NtRp1432
(dp1433
g18
I1
sg19
I180
sg20
I333
sg21
I0
sg22
I0
sg23
I307
sg24
I178
sbssg25
S'!!\xf2%\xbe\xdd\xdbN\xb4\xbb\xcfA\x10+>\xc2'
p1434
ssS'_home_argriffi__local_lib_python2_7_site-packages_numpy_lib_npyio'
p1435
(dp1436
g6
(dp1437
g8
S'_home_argriffi__local_lib_python2_7_site-packages_numpy_lib_npyio.html'
p1438
sg10
S'/home/argriffi/.local/lib/python2.7/site-packages/numpy/lib/npyio'
p1439
sg12
g13
(g14
g15
NtRp1440
(dp1441
g18
I1
sg19
I416
sg20
I725
sg21
I0
sg22
I1
sg23
I674
sg24
I415
sbssg25
S'\xa5\x14\xed=j6\x0c\xbf\xa2\x9c-\xe1\x8f.\xf2\x02'
p1442
ssS'_home_argriffi__local_lib_python2_7_site-packages_networkx_algorithms_isomorphism_matchhelpers'
p1443
(dp1444
g6
(dp1445
g8
S'_home_argriffi__local_lib_python2_7_site-packages_networkx_algorithms_isomorphism_matchhelpers.html'
p1446
sg10
S'/home/argriffi/.local/lib/python2.7/site-packages/networkx/algorithms/isomorphism/matchhelpers'
p1447
sg12
g13
(g14
g15
NtRp1448
(dp1449
g18
I1
sg19
I60
sg20
I133
sg21
I0
sg22
I0
sg23
I100
sg24
I60
sbssg25
S'{4\xdeH<Q\xfc%&d\xe4\xe5\xa6J\xf5r'
p1450
ssS'_usr_share_pyshared_pygraphviz___init__'
p1451
(dp1452
g6
(dp1453
g8
S'_usr_share_pyshared_pygraphviz___init__.html'
p1454
sg10
S'/usr/share/pyshared/pygraphviz/__init__'
p1455
sg12
g13
(g14
g15
NtRp1456
(dp1457
g18
I1
sg19
I2
sg20
I25
sg21
I0
sg22
I1
sg23
I12
sg24
I1
sbssg25
S"\\\x8d\x10b\xca\xfb\xec\xac)\xee\x9f\x9f\xf3'\xc1\x81"
p1458
ssS'_home_argriffi__local_lib_python2_7_site-packages_networkx_algorithms_centrality_load'
p1459
(dp1460
g6
(dp1461
g8
S'_home_argriffi__local_lib_python2_7_site-packages_networkx_algorithms_centrality_load.html'
p1462
sg10
S'/home/argriffi/.local/lib/python2.7/site-packages/networkx/algorithms/centrality/load'
p1463
sg12
g13
(g14
g15
NtRp1464
(dp1465
g18
I1
sg19
I56
sg20
I82
sg21
I0
sg22
I0
sg23
I74
sg24
I56
sbssg25
S'd\xb3x*\x0b\x082Xu\x1b9x>d\x99\xf4'
p1466
ssS'_home_argriffi__local_lib_python2_7_site-packages_nose_exc'
p1467
(dp1468
g6
(dp1469
g8
S'_home_argriffi__local_lib_python2_7_site-packages_nose_exc.html'
p1470
sg10
S'/home/argriffi/.local/lib/python2.7/site-packages/nose/exc'
p1471
sg12
g13
(g14
g15
NtRp1472
(dp1473
g18
I1
sg19
I0
sg20
I2
sg21
I0
sg22
I0
sg23
I0
sg24
I0
sbssg25
S'\xcd\xce\xd9}\x87\xab\x98\xc7\r\x07\x8d\xfaZ\x7f\xbb\xad'
p1474
ssS'_home_argriffi__local_lib_python2_7_site-packages_numpy_linalg___init__'
p1475
(dp1476
g6
(dp1477
g8
S'_home_argriffi__local_lib_python2_7_site-packages_numpy_linalg___init__.html'
p1478
sg10
S'/home/argriffi/.local/lib/python2.7/site-packages/numpy/linalg/__init__'
p1479
sg12
g13
(g14
g15
NtRp1480
(dp1481
g18
I1
sg19
I0
sg20
I6
sg21
I0
sg22
I0
sg23
I0
sg24
I0
sbssg25
S')\t\x1d\xb7\xc9\x9a\x02\xa4\xcdM\xc1\x14\xa3\xd6y\x95'
p1482
ssS'_home_argriffi__local_lib_python2_7_site-packages_numpy_lib__iotools'
p1483
(dp1484
g6
(dp1485
g8
S'_home_argriffi__local_lib_python2_7_site-packages_numpy_lib__iotools.html'
p1486
sg10
S'/home/argriffi/.local/lib/python2.7/site-packages/numpy/lib/_iotools'
p1487
sg12
g13
(g14
g15
NtRp1488
(dp1489
g18
I1
sg19
I190
sg20
I372
sg21
I0
sg22
I2
sg23
I320
sg24
I188
sbssg25
S'z\xfa\xc3\x89\x08d\x89;zK\x91BC\xf8:\\'
p1490
ssS'_home_argriffi__local_lib_python2_7_site-packages_networkx_algorithms_assortativity___init__'
p1491
(dp1492
g6
(dp1493
g8
S'_home_argriffi__local_lib_python2_7_site-packages_networkx_algorithms_assortativity___init__.html'
p1494
sg10
S'/home/argriffi/.local/lib/python2.7/site-packages/networkx/algorithms/assortativity/__init__'
p1495
sg12
g13
(g14
g15
NtRp1496
(dp1497
g18
I1
sg19
I0
sg20
I5
sg21
I0
sg22
I0
sg23
I0
sg24
I0
sbssg25
S'\xd8.SaR\x80zbiL\x12\xe9h\xfe\xd1\xac'
p1498
ssS'_home_argriffi__local_lib_python2_7_site-packages_numpy_core_function_base'
p1499
(dp1500
g6
(dp1501
g8
S'_home_argriffi__local_lib_python2_7_site-packages_numpy_core_function_base.html'
p1502
sg10
S'/home/argriffi/.local/lib/python2.7/site-packages/numpy/core/function_base'
p1503
sg12
g13
(g14
g15
NtRp1504
(dp1505
g18
I1
sg19
I12
sg20
I26
sg21
I0
sg22
I0
sg23
I20
sg24
I12
sbssg25
S'\xf2\x14\xf22\xce|.e\xb0i\xa1\x98\xaa\x94lG'
p1506
ssS'_home_argriffi__local_lib_python2_7_site-packages_networkx_algorithms_centrality_closeness'
p1507
(dp1508
g6
(dp1509
g8
S'_home_argriffi__local_lib_python2_7_site-packages_networkx_algorithms_centrality_closeness.html'
p1510
sg10
S'/home/argriffi/.local/lib/python2.7/site-packages/networkx/algorithms/centrality/closeness'
p1511
sg12
g13
(g14
g15
NtRp1512
(dp1513
g18
I1
sg19
I12
sg20
I24
sg21
I0
sg22
I0
sg23
I19
sg24
I12
sbssg25
S'\xfbn\xac-u\x9e\xc9\xc9e\x0e\xb6\x13\xb3\xb5`\xa7'
p1514
ssS'_home_argriffi__local_lib_python2_7_site-packages_nose_plugins_attrib'
p1515
(dp1516
g6
(dp1517
g8
S'_home_argriffi__local_lib_python2_7_site-packages_nose_plugins_attrib.html'
p1518
sg10
S'/home/argriffi/.local/lib/python2.7/site-packages/nose/plugins/attrib'
p1519
sg12
g13
(g14
g15
NtRp1520
(dp1521
g18
I1
sg19
I53
sg20
I103
sg21
I0
sg22
I5
sg23
I40
sg24
I34
sbssg25
S'\xfc\x08\x05\xa5\xbe\xf44\xb4\x11\x9f#>\xecM\x97\xc9'
p1522
ssS'_home_argriffi__local_lib_python2_7_site-packages_numpy_core_defchararray'
p1523
(dp1524
g6
(dp1525
g8
S'_home_argriffi__local_lib_python2_7_site-packages_numpy_core_defchararray.html'
p1526
sg10
S'/home/argriffi/.local/lib/python2.7/site-packages/numpy/core/defchararray'
p1527
sg12
g13
(g14
g15
NtRp1528
(dp1529
g18
I1
sg19
I88
sg20
I364
sg21
I0
sg22
I1
sg23
I238
sg24
I87
sbssg25
S'0\xb3\xd1\xee5~\xde\x0c\xa0#+K\xb9v\xc8h'
p1530
ssS'_home_argriffi__local_lib_python2_7_site-packages_networkx_algorithms_operators_binary'
p1531
(dp1532
g6
(dp1533
g8
S'_home_argriffi__local_lib_python2_7_site-packages_networkx_algorithms_operators_binary.html'
p1534
sg10
S'/home/argriffi/.local/lib/python2.7/site-packages/networkx/algorithms/operators/binary'
p1535
sg12
g13
(g14
g15
NtRp1536
(dp1537
g18
I1
sg19
I66
sg20
I126
sg21
I0
sg22
I0
sg23
I116
sg24
I66
sbssg25
S'\xd5\x87y\x80\x83\xbaM4\n9g:_\xf4\xda\x15'
p1538
ssS'_home_argriffi__local_lib_python2_7_site-packages_networkx_external_decorator_decorator2___init__'
p1539
(dp1540
g6
(dp1541
g8
S'_home_argriffi__local_lib_python2_7_site-packages_networkx_external_decorator_decorator2___init__.html'
p1542
sg10
S'/home/argriffi/.local/lib/python2.7/site-packages/networkx/external/decorator/decorator2/__init__'
p1543
sg12
g13
(g14
g15
NtRp1544
(dp1545
g18
I1
sg19
I0
sg20
I0
sg21
I0
sg22
I0
sg23
I0
sg24
I0
sbssg25
S'\xe9\x88r\xc3\xd4]1/\x9c\x1f\xefe2\xab\x06\x89'
p1546
ssS'_home_argriffi__local_lib_python2_7_site-packages_networkx_algorithms_centrality_eigenvector'
p1547
(dp1548
g6
(dp1549
g8
S'_home_argriffi__local_lib_python2_7_site-packages_networkx_algorithms_centrality_eigenvector.html'
p1550
sg10
S'/home/argriffi/.local/lib/python2.7/site-packages/networkx/algorithms/centrality/eigenvector'
p1551
sg12
g13
(g14
g15
NtRp1552
(dp1553
g18
I1
sg19
I22
sg20
I49
sg21
I0
sg22
I0
sg23
I43
sg24
I22
sbssg25
S'\xc0\xd5\x8f\x92P8G\xc26\xc5\x0f\x0c\xac\x84t-'
p1554
ssS'_home_argriffi__local_lib_python2_7_site-packages_networkx_version'
p1555
(dp1556
g6
(dp1557
g8
S'_home_argriffi__local_lib_python2_7_site-packages_networkx_version.html'
p1558
sg10
S'/home/argriffi/.local/lib/python2.7/site-packages/networkx/version'
p1559
sg12
g13
(g14
g15
NtRp1560
(dp1561
g18
I1
sg19
I0
sg20
I7
sg21
I0
sg22
I0
sg23
I0
sg24
I0
sbssg25
S'\x9e\n\x85\xd4\x04\xeb\xad\x03i\xacOi\xdeh \xcc'
p1562
ssS'_home_argriffi__local_lib_python2_7_site-packages_networkx_generators_degree_seq'
p1563
(dp1564
g6
(dp1565
g8
S'_home_argriffi__local_lib_python2_7_site-packages_networkx_generators_degree_seq.html'
p1566
sg10
S'/home/argriffi/.local/lib/python2.7/site-packages/networkx/generators/degree_seq'
p1567
sg12
g13
(g14
g15
NtRp1568
(dp1569
g18
I1
sg19
I188
sg20
I311
sg21
I0
sg22
I0
sg23
I284
sg24
I184
sbssg25
S'\xd5\xda\x97}\x87\xcf\x9fSz\xf0\x0cq#L\xb2\x87'
p1570
ssS'_home_argriffi__local_lib_python2_7_site-packages_numpy_lib_nanfunctions'
p1571
(dp1572
g6
(dp1573
g8
S'_home_argriffi__local_lib_python2_7_site-packages_numpy_lib_nanfunctions.html'
p1574
sg10
S'/home/argriffi/.local/lib/python2.7/site-packages/numpy/lib/nanfunctions'
p1575
sg12
g13
(g14
g15
NtRp1576
(dp1577
g18
I1
sg19
I64
sg20
I131
sg21
I0
sg22
I0
sg23
I116
sg24
I64
sbssg25
S'\xe0\xee\x82L(3i?3\xb0\xf4\xdd)\xd1\xc9\xe5'
p1578
ssS'_home_argriffi__local_lib_python2_7_site-packages_networkx_algorithms_smetric'
p1579
(dp1580
g6
(dp1581
g8
S'_home_argriffi__local_lib_python2_7_site-packages_networkx_algorithms_smetric.html'
p1582
sg10
S'/home/argriffi/.local/lib/python2.7/site-packages/networkx/algorithms/smetric'
p1583
sg12
g13
(g14
g15
NtRp1584
(dp1585
g18
I1
sg19
I2
sg20
I5
sg21
I0
sg22
I0
sg23
I3
sg24
I2
sbssg25
S'\\`-Z\xf1\xd5*J\n\x97s\x94k\xa8\xb9\xd3'
p1586
ssS'_home_argriffi__local_lib_python2_7_site-packages_networkx_utils_union_find'
p1587
(dp1588
g6
(dp1589
g8
S'_home_argriffi__local_lib_python2_7_site-packages_networkx_utils_union_find.html'
p1590
sg10
S'/home/argriffi/.local/lib/python2.7/site-packages/networkx/utils/union_find'
p1591
sg12
g13
(g14
g15
NtRp1592
(dp1593
g18
I1
sg19
I10
sg20
I27
sg21
I0
sg22
I0
sg23
I21
sg24
I10
sbssg25
S'\xda\x10<\xadG\xb3\x9b\xd4\x88`\xb9S\xa8f$"'
p1594
ssS'_home_argriffi__local_lib_python2_7_site-packages_networkx_algorithms_graphical'
p1595
(dp1596
g6
(dp1597
g8
S'_home_argriffi__local_lib_python2_7_site-packages_networkx_algorithms_graphical.html'
p1598
sg10
S'/home/argriffi/.local/lib/python2.7/site-packages/networkx/algorithms/graphical'
p1599
sg12
g13
(g14
g15
NtRp1600
(dp1601
g18
I1
sg19
I92
sg20
I152
sg21
I0
sg22
I0
sg23
I138
sg24
I92
sbssg25
S'\xb1\xb9#\x02\x82D@\x97\xa7Y\xc8\xbf\x91\xac\x01\xb5'
p1602
ssS'_home_argriffi__local_lib_python2_7_site-packages_networkx_tests___init__'
p1603
(dp1604
g6
(dp1605
g8
S'_home_argriffi__local_lib_python2_7_site-packages_networkx_tests___init__.html'
p1606
sg10
S'/home/argriffi/.local/lib/python2.7/site-packages/networkx/tests/__init__'
p1607
sg12
g13
(g14
g15
NtRp1608
(dp1609
g18
I1
sg19
I0
sg20
I0
sg21
I0
sg22
I0
sg23
I0
sg24
I0
sbssg25
S'\xbf/\x83L\xc9/\xc0\x9a\xf0p\xa8h\xff\x10T5'
p1610
ssS'build_testenv_lib_python2_7_site-packages_nxmctree_tests_test_dummy'
p1611
(dp1612
g6
(dp1613
g8
S'build_testenv_lib_python2_7_site-packages_nxmctree_tests_test_dummy.html'
p1614
sg10
S'build/testenv/lib/python2.7/site-packages/nxmctree/tests/test_dummy'
p1615
sg12
g13
(g14
g15
NtRp1616
(dp1617
g18
I1
sg19
I0
sg20
I8
sg21
I0
sg22
I0
sg23
I2
sg24
I0
sbssg25
S'\xa5\xdbs/\xc5\xe1\x84\xbb;\x88\xc0\xdb\xd5\xdaju'
p1618
ssS'_home_argriffi__local_lib_python2_7_site-packages_numpy_fft_info'
p1619
(dp1620
g6
(dp1621
g8
S'_home_argriffi__local_lib_python2_7_site-packages_numpy_fft_info.html'
p1622
sg10
S'/home/argriffi/.local/lib/python2.7/site-packages/numpy/fft/info'
p1623
sg12
g13
(g14
g15
NtRp1624
(dp1625
g18
I1
sg19
I0
sg20
I2
sg21
I0
sg22
I0
sg23
I0
sg24
I0
sbssg25
S'\x04\x01\xe1<Hxy\nO\xb2X\x885\xd4\xaa|'
p1626
ssS'_home_argriffi__local_lib_python2_7_site-packages_networkx_algorithms_vitality'
p1627
(dp1628
g6
(dp1629
g8
S'_home_argriffi__local_lib_python2_7_site-packages_networkx_algorithms_vitality.html'
p1630
sg10
S'/home/argriffi/.local/lib/python2.7/site-packages/networkx/algorithms/vitality'
p1631
sg12
g13
(g14
g15
NtRp1632
(dp1633
g18
I1
sg19
I14
sg20
I29
sg21
I0
sg22
I0
sg23
I24
sg24
I14
sbssg25
S'\x88M\x97\xfc\x8e\xb9\x80"\x15\xb9s\x00%\xf6\x9c\xe7'
p1634
ssS'_home_argriffi__local_lib_python2_7_site-packages_networkx_algorithms_components_attracting'
p1635
(dp1636
g6
(dp1637
g8
S'_home_argriffi__local_lib_python2_7_site-packages_networkx_algorithms_components_attracting.html'
p1638
sg10
S'/home/argriffi/.local/lib/python2.7/site-packages/networkx/algorithms/components/attracting'
p1639
sg12
g13
(g14
g15
NtRp1640
(dp1641
g18
I1
sg19
I10
sg20
I26
sg21
I0
sg22
I0
sg23
I16
sg24
I10
sbssg25
S'oL\xfc\x10M\xbak\xd0\xd6K\xe7\xd4\x1d\x83\xd9\xfe'
p1642
ssS'_home_argriffi__local_lib_python2_7_site-packages_networkx_utils_misc'
p1643
(dp1644
g6
(dp1645
g8
S'_home_argriffi__local_lib_python2_7_site-packages_networkx_utils_misc.html'
p1646
sg10
S'/home/argriffi/.local/lib/python2.7/site-packages/networkx/utils/misc'
p1647
sg12
g13
(g14
g15
NtRp1648
(dp1649
g18
I1
sg19
I34
sg20
I91
sg21
I0
sg22
I1
sg23
I72
sg24
I33
sbssg25
S'\xfd\x81\x14z!e]\x00\x0f\xba\xf5A4\xa1x1'
p1650
ssS'_home_argriffi__local_lib_python2_7_site-packages_numpy_fft_fftpack'
p1651
(dp1652
g6
(dp1653
g8
S'_home_argriffi__local_lib_python2_7_site-packages_numpy_fft_fftpack.html'
p1654
sg10
S'/home/argriffi/.local/lib/python2.7/site-packages/numpy/fft/fftpack'
p1655
sg12
g13
(g14
g15
NtRp1656
(dp1657
g18
I1
sg19
I36
sg20
I109
sg21
I0
sg22
I0
sg23
I86
sg24
I36
sbssg25
S'\x01\x9b\x81\xe0\x1c\xde1\xf1\x8b[\xba\xe3\x9f~\x15\xdb'
p1658
ssS'_home_argriffi__local_lib_python2_7_site-packages_networkx_generators_threshold'
p1659
(dp1660
g6
(dp1661
g8
S'_home_argriffi__local_lib_python2_7_site-packages_networkx_generators_threshold.html'
p1662
sg10
S'/home/argriffi/.local/lib/python2.7/site-packages/networkx/generators/threshold'
p1663
sg12
g13
(g14
g15
NtRp1664
(dp1665
g18
I1
sg19
I234
sg20
I479
sg21
I0
sg22
I0
sg23
I447
sg24
I234
sbssg25
S')\xac\xcc \x17z#\xfc\xac#3h]\xc8D\x1f'
p1666
ssS'_home_argriffi__local_lib_python2_7_site-packages_nose_plugins_debug'
p1667
(dp1668
g6
(dp1669
g8
S'_home_argriffi__local_lib_python2_7_site-packages_nose_plugins_debug.html'
p1670
sg10
S'/home/argriffi/.local/lib/python2.7/site-packages/nose/plugins/debug'
p1671
sg12
g13
(g14
g15
NtRp1672
(dp1673
g18
I1
sg19
I4
sg20
I30
sg21
I0
sg22
I0
sg23
I13
sg24
I4
sbssg25
S'7\x03`\x83k]\xa8\x1a{\xa3FVU\xc0:\x9e'
p1674
ssS'_home_argriffi__local_lib_python2_7_site-packages_networkx_algorithms_assortativity_connectivity'
p1675
(dp1676
g6
(dp1677
g8
S'_home_argriffi__local_lib_python2_7_site-packages_networkx_algorithms_assortativity_connectivity.html'
p1678
sg10
S'/home/argriffi/.local/lib/python2.7/site-packages/networkx/algorithms/assortativity/connectivity'
p1679
sg12
g13
(g14
g15
NtRp1680
(dp1681
g18
I1
sg19
I26
sg20
I40
sg21
I0
sg22
I0
sg23
I33
sg24
I26
sbssg25
S' \xf3\xf1\xdc\xfa\xe0&\xfa\x03f\xe2\xdf\x84u)X'
p1682
ssS'_home_argriffi__local_lib_python2_7_site-packages_networkx_algorithms_traversal_breadth_first_search'
p1683
(dp1684
g6
(dp1685
g8
S'_home_argriffi__local_lib_python2_7_site-packages_networkx_algorithms_traversal_breadth_first_search.html'
p1686
sg10
S'/home/argriffi/.local/lib/python2.7/site-packages/networkx/algorithms/traversal/breadth_first_search'
p1687
sg12
g13
(g14
g15
NtRp1688
(dp1689
g18
I1
sg19
I10
sg20
I32
sg21
I0
sg22
I2
sg23
I10
sg24
I6
sbssg25
S'\xa2\x9c\xbdL\xc4b\x96\xb0\x85\xc9\x96\x0f\x9e\xf3\xe3\xec'
p1690
ssS'_home_argriffi__local_lib_python2_7_site-packages_nose_selector'
p1691
(dp1692
g6
(dp1693
g8
S'_home_argriffi__local_lib_python2_7_site-packages_nose_selector.html'
p1694
sg10
S'/home/argriffi/.local/lib/python2.7/site-packages/nose/selector'
p1695
sg12
g13
(g14
g15
NtRp1696
(dp1697
g18
I1
sg19
I50
sg20
I134
sg21
I0
sg22
I18
sg23
I28
sg24
I22
sbssg25
S'\x8b\xbdE\xc8\xa9\xcc5z\xb1\xc9\xbe\xa9t\x17e\x85'
p1698
ssS'_home_argriffi__local_lib_python2_7_site-packages_networkx_classes_function'
p1699
(dp1700
g6
(dp1701
g8
S'_home_argriffi__local_lib_python2_7_site-packages_networkx_classes_function.html'
p1702
sg10
S'/home/argriffi/.local/lib/python2.7/site-packages/networkx/classes/function'
p1703
sg12
g13
(g14
g15
NtRp1704
(dp1705
g18
I1
sg19
I30
sg20
I104
sg21
I0
sg22
I0
sg23
I77
sg24
I30
sbssg25
S'\xdd\x15\x00\xdd\xbb\xfa49\xb0\xe7\x9c\x13\xba \xe1`'
p1706
ssS'_home_argriffi__local_lib_python2_7_site-packages_nose_plugins_base'
p1707
(dp1708
g6
(dp1709
g8
S'_home_argriffi__local_lib_python2_7_site-packages_nose_plugins_base.html'
p1710
sg10
S'/home/argriffi/.local/lib/python2.7/site-packages/nose/plugins/base'
p1711
sg12
g13
(g14
g15
NtRp1712
(dp1713
g18
I1
sg19
I16
sg20
I195
sg21
I0
sg22
I5
sg23
I58
sg24
I5
sbssg25
S"?G\xf5d;\xcfi\x0c\xe9\xe95'M\x19b\xcb"
p1714
ssS'_home_argriffi__local_lib_python2_7_site-packages_networkx_readwrite_graph6'
p1715
(dp1716
g6
(dp1717
g8
S'_home_argriffi__local_lib_python2_7_site-packages_networkx_readwrite_graph6.html'
p1718
sg10
S'/home/argriffi/.local/lib/python2.7/site-packages/networkx/readwrite/graph6'
p1719
sg12
g13
(g14
g15
NtRp1720
(dp1721
g18
I1
sg19
I48
sg20
I87
sg21
I0
sg22
I0
sg23
I72
sg24
I48
sbssg25
S'\x86\x10\xf7\x88z\x13\x14,\x15\xf1Y\xe4\x1ct\xe8q'
p1722
ssS'_home_argriffi__local_lib_python2_7_site-packages_networkx_readwrite_sparse6'
p1723
(dp1724
g6
(dp1725
g8
S'_home_argriffi__local_lib_python2_7_site-packages_networkx_readwrite_sparse6.html'
p1726
sg10
S'/home/argriffi/.local/lib/python2.7/site-packages/networkx/readwrite/sparse6'
p1727
sg12
g13
(g14
g15
NtRp1728
(dp1729
g18
I1
sg19
I44
sg20
I105
sg21
I0
sg22
I0
sg23
I93
sg24
I44
sbssg25
S'4\xf8\x11\xb5$\xcd\xd5\xd6\xd2\xe3\x8diEG\x95\xf0'
p1730
ssS'_home_argriffi__local_lib_python2_7_site-packages_networkx_algorithms_shortest_paths___init__'
p1731
(dp1732
g6
(dp1733
g8
S'_home_argriffi__local_lib_python2_7_site-packages_networkx_algorithms_shortest_paths___init__.html'
p1734
sg10
S'/home/argriffi/.local/lib/python2.7/site-packages/networkx/algorithms/shortest_paths/__init__'
p1735
sg12
g13
(g14
g15
NtRp1736
(dp1737
g18
I1
sg19
I0
sg20
I5
sg21
I0
sg22
I0
sg23
I0
sg24
I0
sbssg25
S'\xa6\xc2\x0b0\x15x\xd2\x9aR\x82\xe2!G\r\xe01'
p1738
ssS'_home_argriffi__local_lib_python2_7_site-packages_nose_plugins_failuredetail'
p1739
(dp1740
g6
(dp1741
g8
S'_home_argriffi__local_lib_python2_7_site-packages_nose_plugins_failuredetail.html'
p1742
sg10
S'/home/argriffi/.local/lib/python2.7/site-packages/nose/plugins/failuredetail'
p1743
sg12
g13
(g14
g15
NtRp1744
(dp1745
g18
I1
sg19
I2
sg20
I16
sg21
I0
sg22
I1
sg23
I5
sg24
I1
sbssg25
S'\xb1\xde\x17o\xe3qKHz*\xdfbq\xe9\xb37'
p1746
ssS'_home_argriffi__local_lib_python2_7_site-packages_nose_pyversion'
p1747
(dp1748
g6
(dp1749
g8
S'_home_argriffi__local_lib_python2_7_site-packages_nose_pyversion.html'
p1750
sg10
S'/home/argriffi/.local/lib/python2.7/site-packages/nose/pyversion'
p1751
sg12
g13
(g14
g15
NtRp1752
(dp1753
g18
I1
sg19
I22
sg20
I78
sg21
I0
sg22
I3
sg23
I39
sg24
I19
sbssg25
S'\xba\xc9t\xc7\x8em\xbezLT\xa7\xb8|\x80\xb2\x9c'
p1754
ssS'_home_argriffi__local_lib_python2_7_site-packages_networkx_algorithms_centrality_katz'
p1755
(dp1756
g6
(dp1757
g8
S'_home_argriffi__local_lib_python2_7_site-packages_networkx_algorithms_centrality_katz.html'
p1758
sg10
S'/home/argriffi/.local/lib/python2.7/site-packages/networkx/algorithms/centrality/katz'
p1759
sg12
g13
(g14
g15
NtRp1760
(dp1761
g18
I1
sg19
I28
sg20
I73
sg21
I0
sg22
I0
sg23
I64
sg24
I28
sbssg25
S'\xdbZ\x11\xeb\xe6\x00rFi\xf0ZA\xeeKQ\xe9'
p1762
ssS'_home_argriffi__local_lib_python2_7_site-packages_networkx_classes_multigraph'
p1763
(dp1764
g6
(dp1765
g8
S'_home_argriffi__local_lib_python2_7_site-packages_networkx_classes_multigraph.html'
p1766
sg10
S'/home/argriffi/.local/lib/python2.7/site-packages/networkx/classes/multigraph'
p1767
sg12
g13
(g14
g15
NtRp1768
(dp1769
g18
I1
sg19
I98
sg20
I182
sg21
I0
sg22
I0
sg23
I161
sg24
I98
sbssg25
S'XA\x85\xa1\x87\xc0M1\xd3G\xcc\xb0\xbf\x98;\xd2'
p1770
ssS'_home_argriffi__local_lib_python2_7_site-packages_networkx_algorithms_shortest_paths_astar'
p1771
(dp1772
g6
(dp1773
g8
S'_home_argriffi__local_lib_python2_7_site-packages_networkx_algorithms_shortest_paths_astar.html'
p1774
sg10
S'/home/argriffi/.local/lib/python2.7/site-packages/networkx/algorithms/shortest_paths/astar'
p1775
sg12
g13
(g14
g15
NtRp1776
(dp1777
g18
I1
sg19
I22
sg20
I43
sg21
I0
sg22
I0
sg23
I35
sg24
I22
sbssg25
S'\xc4\xa4\xd8`\x9b\xfcG\x03\xa9\x03nM8!\x1a\xb2'
p1778
ssS'_home_argriffi__local_lib_python2_7_site-packages_networkx_generators_small'
p1779
(dp1780
g6
(dp1781
g8
S'_home_argriffi__local_lib_python2_7_site-packages_networkx_generators_small.html'
p1782
sg10
S'/home/argriffi/.local/lib/python2.7/site-packages/networkx/generators/small'
p1783
sg12
g13
(g14
g15
NtRp1784
(dp1785
g18
I1
sg19
I20
sg20
I139
sg21
I0
sg22
I0
sg23
I109
sg24
I20
sbssg25
S'\x1d\xfb\xfd\xd8\xa8\x10N\xc8\x82\xb7)Z \x0e\xc6\xc8'
p1786
ssS'_home_argriffi__local_lib_python2_7_site-packages_networkx_algorithms_mst'
p1787
(dp1788
g6
(dp1789
g8
S'_home_argriffi__local_lib_python2_7_site-packages_networkx_algorithms_mst.html'
p1790
sg10
S'/home/argriffi/.local/lib/python2.7/site-packages/networkx/algorithms/mst'
p1791
sg12
g13
(g14
g15
NtRp1792
(dp1793
g18
I1
sg19
I34
sg20
I55
sg21
I0
sg22
I0
sg23
I46
sg24
I34
sbssg25
S'P\xc4\xd1\x8c\xda:\xef\x07"!\x1a\xcb\x8d:&\x12'
p1794
ssS'_home_argriffi__local_lib_python2_7_site-packages_networkx_utils_decorators'
p1795
(dp1796
g6
(dp1797
g8
S'_home_argriffi__local_lib_python2_7_site-packages_networkx_utils_decorators.html'
p1798
sg10
S'/home/argriffi/.local/lib/python2.7/site-packages/networkx/utils/decorators'
p1799
sg12
g13
(g14
g15
NtRp1800
(dp1801
g18
I1
sg19
I14
sg20
I65
sg21
I0
sg22
I1
sg23
I47
sg24
I13
sbssg25
S"s\xa4d\xc1\xa7\xafK\xe2\xe4L'\xe8:\xe4\xa9u"
p1802
ssS'_home_argriffi__local_lib_python2_7_site-packages_networkx_drawing_nx_pylab'
p1803
(dp1804
g6
(dp1805
g8
S'_home_argriffi__local_lib_python2_7_site-packages_networkx_drawing_nx_pylab.html'
p1806
sg10
S'/home/argriffi/.local/lib/python2.7/site-packages/networkx/drawing/nx_pylab'
p1807
sg12
g13
(g14
g15
NtRp1808
(dp1809
g18
I1
sg19
I88
sg20
I247
sg21
I0
sg22
I0
sg23
I229
sg24
I88
sbssg25
S'\xd9yb\x02g<Z\x9eI\x03k\x8a\xa0+`\xfb'
p1810
ssS'_home_argriffi__local_lib_python2_7_site-packages_nose_proxy'
p1811
(dp1812
g6
(dp1813
g8
S'_home_argriffi__local_lib_python2_7_site-packages_nose_proxy.html'
p1814
sg10
S'/home/argriffi/.local/lib/python2.7/site-packages/nose/proxy'
p1815
sg12
g13
(g14
g15
NtRp1816
(dp1817
g18
I1
sg19
I33
sg20
I111
sg21
I0
sg22
I11
sg23
I30
sg24
I17
sbssg25
S">)\xd8\x9e\x12Y\xd2\x0e\x89\xb2\x85'r\xc2\xcdv"
p1818
ssS'_home_argriffi__local_lib_python2_7_site-packages_networkx_readwrite_pajek'
p1819
(dp1820
g6
(dp1821
g8
S'_home_argriffi__local_lib_python2_7_site-packages_networkx_readwrite_pajek.html'
p1822
sg10
S'/home/argriffi/.local/lib/python2.7/site-packages/networkx/readwrite/pajek'
p1823
sg12
g13
(g14
g15
NtRp1824
(dp1825
g18
I1
sg19
I38
sg20
I105
sg21
I0
sg22
I0
sg23
I93
sg24
I38
sbssg25
S'\xbfe~[\x9a!\x84\x91\xc7t\x0e\xd4\xfc\xea\x13.'
p1826
ssS'_home_argriffi__local_lib_python2_7_site-packages_nose_plugins_capture'
p1827
(dp1828
g6
(dp1829
g8
S'_home_argriffi__local_lib_python2_7_site-packages_nose_plugins_capture.html'
p1830
sg10
S'/home/argriffi/.local/lib/python2.7/site-packages/nose/plugins/capture'
p1831
sg12
g13
(g14
g15
NtRp1832
(dp1833
g18
I1
sg19
I21
sg20
I64
sg21
I0
sg22
I1
sg23
I32
sg24
I20
sbssg25
S'\x0b\xd1D\xd0\xab\xe9\x86\x1a:Gaz\xceG\xbd\xfb'
p1834
ssS'_home_argriffi__local_lib_python2_7_site-packages_networkx_algorithms_cycles'
p1835
(dp1836
g6
(dp1837
g8
S'_home_argriffi__local_lib_python2_7_site-packages_networkx_algorithms_cycles.html'
p1838
sg10
S'/home/argriffi/.local/lib/python2.7/site-packages/networkx/algorithms/cycles'
p1839
sg12
g13
(g14
g15
NtRp1840
(dp1841
g18
I1
sg19
I66
sg20
I124
sg21
I0
sg22
I0
sg23
I114
sg24
I66
sbssg25
S'\xc3\x8b\xcf\xe7w\xca\xda\xe6\x82\xa0$\xe3\xff1\xcb\x1d'
p1842
ssS'_home_argriffi__local_lib_python2_7_site-packages_numpy_compat___init__'
p1843
(dp1844
g6
(dp1845
g8
S'_home_argriffi__local_lib_python2_7_site-packages_numpy_compat___init__.html'
p1846
sg10
S'/home/argriffi/.local/lib/python2.7/site-packages/numpy/compat/__init__'
p1847
sg12
g13
(g14
g15
NtRp1848
(dp1849
g18
I1
sg19
I0
sg20
I8
sg21
I0
sg22
I0
sg23
I0
sg24
I0
sbssg25
S'\xe3\xef\x0e\x94*$9k\x83\xdd\n^\xd0\xd0\xf5\x8c'
p1850
ssS'_home_argriffi__local_lib_python2_7_site-packages_nose___init__'
p1851
(dp1852
g6
(dp1853
g8
S'_home_argriffi__local_lib_python2_7_site-packages_nose___init__.html'
p1854
sg10
S'/home/argriffi/.local/lib/python2.7/site-packages/nose/__init__'
p1855
sg12
g13
(g14
g15
NtRp1856
(dp1857
g18
I1
sg19
I0
sg20
I7
sg21
I0
sg22
I0
sg23
I0
sg24
I0
sbssg25
S'\xe2~gb\xa3\x9dm\xcb\xfe\xf8\x9a\xae\xca\x14\x1fX'
p1858
ssS'_home_argriffi__local_lib_python2_7_site-packages_networkx_algorithms_centrality_current_flow_betweenness'
p1859
(dp1860
g6
(dp1861
g8
S'_home_argriffi__local_lib_python2_7_site-packages_networkx_algorithms_centrality_current_flow_betweenness.html'
p1862
sg10
S'/home/argriffi/.local/lib/python2.7/site-packages/networkx/algorithms/centrality/current_flow_betweenness'
p1863
sg12
g13
(g14
g15
NtRp1864
(dp1865
g18
I1
sg19
I45
sg20
I114
sg21
I0
sg22
I0
sg23
I105
sg24
I45
sbssg25
S'\xd9\x99\xe2\xff*ia\xb4\xcbz\x1b\x95\xe3\x07\n\xb6'
p1866
ssS'_home_argriffi__local_lib_python2_7_site-packages_networkx_algorithms_components_strongly_connected'
p1867
(dp1868
g6
(dp1869
g8
S'_home_argriffi__local_lib_python2_7_site-packages_networkx_algorithms_components_strongly_connected.html'
p1870
sg10
S'/home/argriffi/.local/lib/python2.7/site-packages/networkx/algorithms/components/strongly_connected'
p1871
sg12
g13
(g14
g15
NtRp1872
(dp1873
g18
I1
sg19
I62
sg20
I114
sg21
I0
sg22
I0
sg23
I99
sg24
I62
sbssg25
S'\x95\xcf\xb5)\xbc\xcb\xb1\xb7d\x90\xb9\xe7e)\x98\x18'
p1874
ssS'_home_argriffi__local_lib_python2_7_site-packages_numpy_lib_type_check'
p1875
(dp1876
g6
(dp1877
g8
S'_home_argriffi__local_lib_python2_7_site-packages_numpy_lib_type_check.html'
p1878
sg10
S'/home/argriffi/.local/lib/python2.7/site-packages/numpy/lib/type_check'
p1879
sg12
g13
(g14
g15
NtRp1880
(dp1881
g18
I1
sg19
I34
sg20
I104
sg21
I0
sg22
I0
sg23
I80
sg24
I34
sbssg25
S'+\x97U\xdb\x9d\x98s\xb8C\xb2\x1f\x01\xc6\x14\x14\x98'
p1882
ssS'_home_argriffi__local_lib_python2_7_site-packages_networkx_algorithms_flow_maxflow'
p1883
(dp1884
g6
(dp1885
g8
S'_home_argriffi__local_lib_python2_7_site-packages_networkx_algorithms_flow_maxflow.html'
p1886
sg10
S'/home/argriffi/.local/lib/python2.7/site-packages/networkx/algorithms/flow/maxflow'
p1887
sg12
g13
(g14
g15
NtRp1888
(dp1889
g18
I1
sg19
I48
sg20
I94
sg21
I0
sg22
I0
sg23
I83
sg24
I46
sbssg25
S'\x17d\x15OD\xf7yFn\x1c\xe7\xef\x11\xdb\xb9"'
p1890
ssS'build_testenv_lib_python2_7_site-packages_nxmctree_tests_test_algorithms'
p1891
(dp1892
g6
(dp1893
g8
S'build_testenv_lib_python2_7_site-packages_nxmctree_tests_test_algorithms.html'
p1894
sg10
S'build/testenv/lib/python2.7/site-packages/nxmctree/tests/test_algorithms'
p1895
sg12
g13
(g14
g15
NtRp1896
(dp1897
g18
I1
sg19
I64
sg20
I159
sg21
I0
sg22
I3
sg23
I4
sg24
I3
sbssg25
S'\xc1\xfe\xf9Ex\x0b\xfa\x96\xe4\xd4\xa3\x9c\x1d\x83&&'
p1898
ssS'_home_argriffi__local_lib_python2_7_site-packages_networkx_algorithms_community_kclique'
p1899
(dp1900
g6
(dp1901
g8
S'_home_argriffi__local_lib_python2_7_site-packages_networkx_algorithms_community_kclique.html'
p1902
sg10
S'/home/argriffi/.local/lib/python2.7/site-packages/networkx/algorithms/community/kclique'
p1903
sg12
g13
(g14
g15
NtRp1904
(dp1905
g18
I1
sg19
I22
sg20
I29
sg21
I0
sg22
I0
sg23
I23
sg24
I22
sbssg25
S'\xa3\x8a\xd0](\xc7\xbf\xc7#R$R\x08\x19\x96\xdf'
p1906
ssS'_home_argriffi__local_lib_python2_7_site-packages_nose_config'
p1907
(dp1908
g6
(dp1909
g8
S'_home_argriffi__local_lib_python2_7_site-packages_nose_config.html'
p1910
sg10
S'/home/argriffi/.local/lib/python2.7/site-packages/nose/config'
p1911
sg12
g13
(g14
g15
NtRp1912
(dp1913
g18
I1
sg19
I94
sg20
I335
sg21
I0
sg22
I29
sg23
I130
sg24
I65
sbssg25
S'BuF\xad\x93N\xea\x8c\x1a\x94\xc1f\xe6l\x8e\x97'
p1914
ssS'_home_argriffi__local_lib_python2_7_site-packages_nose_plugins_deprecated'
p1915
(dp1916
g6
(dp1917
g8
S'_home_argriffi__local_lib_python2_7_site-packages_nose_plugins_deprecated.html'
p1918
sg10
S'/home/argriffi/.local/lib/python2.7/site-packages/nose/plugins/deprecated'
p1919
sg12
g13
(g14
g15
NtRp1920
(dp1921
g18
I1
sg19
I4
sg20
I16
sg21
I0
sg22
I2
sg23
I2
sg24
I2
sbssg25
S'\xb9\x9b\x89\xf9C\xfd\x17\xa2M\xea\x1b\xa2\xb6o\t\xb5'
p1922
ssS'_home_argriffi__local_lib_python2_7_site-packages_networkx_algorithms_tree___init__'
p1923
(dp1924
g6
(dp1925
g8
S'_home_argriffi__local_lib_python2_7_site-packages_networkx_algorithms_tree___init__.html'
p1926
sg10
S'/home/argriffi/.local/lib/python2.7/site-packages/networkx/algorithms/tree/__init__'
p1927
sg12
g13
(g14
g15
NtRp1928
(dp1929
g18
I1
sg19
I0
sg20
I1
sg21
I0
sg22
I0
sg23
I0
sg24
I0
sbssg25
S'|\x87\xd2\x849/A\xa0\xaaO\xd1\xb1\xa4\nb\x05'
p1930
ssS'_usr_share_pyshared_pygraphviz_tests_test'
p1931
(dp1932
g6
(dp1933
g8
S'_usr_share_pyshared_pygraphviz_tests_test.html'
p1934
sg10
S'/usr/share/pyshared/pygraphviz/tests/test'
p1935
sg12
g13
(g14
g15
NtRp1936
(dp1937
g18
I1
sg19
I8
sg20
I36
sg21
I0
sg22
I1
sg23
I28
sg24
I7
sbssg25
S'\xe4\x14\xa9C\xae\xa3\xb5n\x1b\x0b0\\tPn,'
p1938
ssS'_home_argriffi__local_lib_python2_7_site-packages_networkx_algorithms_connectivity_cuts'
p1939
(dp1940
g6
(dp1941
g8
S'_home_argriffi__local_lib_python2_7_site-packages_networkx_algorithms_connectivity_cuts.html'
p1942
sg10
S'/home/argriffi/.local/lib/python2.7/site-packages/networkx/algorithms/connectivity/cuts'
p1943
sg12
g13
(g14
g15
NtRp1944
(dp1945
g18
I1
sg19
I63
sg20
I100
sg21
I0
sg22
I0
sg23
I89
sg24
I63
sbssg25
S'\x8btU]\xa3\x95\x10\x93\xf1|\xc4\xd2f\xe3\x81\xb4'
p1946
ssS'_home_argriffi__local_lib_python2_7_site-packages_numpy_lib_twodim_base'
p1947
(dp1948
g6
(dp1949
g8
S'_home_argriffi__local_lib_python2_7_site-packages_numpy_lib_twodim_base.html'
p1950
sg10
S'/home/argriffi/.local/lib/python2.7/site-packages/numpy/lib/twodim_base'
p1951
sg12
g13
(g14
g15
NtRp1952
(dp1953
g18
I1
sg19
I44
sg20
I121
sg21
I0
sg22
I0
sg23
I102
sg24
I44
sbssg25
S'\x88\xe8\xed\xeb{\x9c\xd1\xfe\xe6W\x1e\x11s\x9c\xdc\xf0'
p1954
ssS'_home_argriffi__local_lib_python2_7_site-packages_networkx_algorithms_dominating'
p1955
(dp1956
g6
(dp1957
g8
S'_home_argriffi__local_lib_python2_7_site-packages_networkx_algorithms_dominating.html'
p1958
sg10
S'/home/argriffi/.local/lib/python2.7/site-packages/networkx/algorithms/dominating'
p1959
sg12
g13
(g14
g15
NtRp1960
(dp1961
g18
I1
sg19
I12
sg20
I27
sg21
I0
sg22
I0
sg23
I22
sg24
I12
sbssg25
S'\x80\xf7\xb3\xffC\xd5\x05D+\t2\x8047\x18\xac'
p1962
ssS'_home_argriffi__local_lib_python2_7_site-packages_numpy___init__'
p1963
(dp1964
g6
(dp1965
g8
S'_home_argriffi__local_lib_python2_7_site-packages_numpy___init__.html'
p1966
sg10
S'/home/argriffi/.local/lib/python2.7/site-packages/numpy/__init__'
p1967
sg12
g13
(g14
g15
NtRp1968
(dp1969
g18
I1
sg19
I4
sg20
I58
sg21
I0
sg22
I2
sg23
I10
sg24
I2
sbssg25
S'k\x1e\xca \xd2\xff\xf6\xe6k\x0c\x83\x99\xe1\x07v\xb3'
p1970
ssS'build_testenv_lib_python2_7_site-packages_nxmctree_brute_fset_lhood'
p1971
(dp1972
g6
(dp1973
g8
S'build_testenv_lib_python2_7_site-packages_nxmctree_brute_fset_lhood.html'
p1974
sg10
S'build/testenv/lib/python2.7/site-packages/nxmctree/brute_fset_lhood'
p1975
sg12
g13
(g14
g15
NtRp1976
(dp1977
g18
I1
sg19
I30
sg20
I47
sg21
I0
sg22
I0
sg23
I0
sg24
I0
sbssg25
S'\x89c\x0c\xac\x02y>\xda\x86m\xda\x9c\xf3\x08E\xb0'
p1978
ssS'_home_argriffi__local_lib_python2_7_site-packages_networkx_algorithms_chordal_chordal_alg'
p1979
(dp1980
g6
(dp1981
g8
S'_home_argriffi__local_lib_python2_7_site-packages_networkx_algorithms_chordal_chordal_alg.html'
p1982
sg10
S'/home/argriffi/.local/lib/python2.7/site-packages/networkx/algorithms/chordal/chordal_alg'
p1983
sg12
g13
(g14
g15
NtRp1984
(dp1985
g18
I1
sg19
I56
sg20
I117
sg21
I0
sg22
I0
sg23
I101
sg24
I56
sbssg25
S"\xca[\xf0\xba\x1f\xcd'\xfa\x11_\x8b\xc1\xdb?\xaaZ"
p1986
ssS'_home_argriffi__local_lib_python2_7_site-packages_networkx_readwrite_graphml'
p1987
(dp1988
g6
(dp1989
g8
S'_home_argriffi__local_lib_python2_7_site-packages_networkx_readwrite_graphml.html'
p1990
sg10
S'/home/argriffi/.local/lib/python2.7/site-packages/networkx/readwrite/graphml'
p1991
sg12
g13
(g14
g15
NtRp1992
(dp1993
g18
I1
sg19
I114
sg20
I284
sg21
I0
sg22
I0
sg23
I236
sg24
I112
sbssg25
S'\x8d/P|\xb8C\xe1\xf2c.\x13\xd9<\xc7{9'
p1994
ssS'_home_argriffi__local_lib_python2_7_site-packages_networkx_algorithms_centrality_current_flow_betweenness_subset'
p1995
(dp1996
g6
(dp1997
g8
S'_home_argriffi__local_lib_python2_7_site-packages_networkx_algorithms_centrality_current_flow_betweenness_subset.html'
p1998
sg10
S'/home/argriffi/.local/lib/python2.7/site-packages/networkx/algorithms/centrality/current_flow_betweenness_subset'
p1999
sg12
g13
(g14
g15
NtRp2000
(dp2001
g18
I1
sg19
I30
sg20
I74
sg21
I0
sg22
I0
sg23
I66
sg24
I30
sbssg25
S'1q\x1fg%\r]O\xd5\xfbmz\x85<\xe7\xf0'
p2002
ssS'_home_argriffi__local_lib_python2_7_site-packages_networkx_algorithms___init__'
p2003
(dp2004
g6
(dp2005
g8
S'_home_argriffi__local_lib_python2_7_site-packages_networkx_algorithms___init__.html'
p2006
sg10
S'/home/argriffi/.local/lib/python2.7/site-packages/networkx/algorithms/__init__'
p2007
sg12
g13
(g14
g15
NtRp2008
(dp2009
g18
I1
sg19
I0
sg20
I51
sg21
I0
sg22
I0
sg23
I0
sg24
I0
sbssg25
S'"\xe3\x83\x10\xdc\x9f\'k\xad\xa3\xe4\x8d\xe6%\xdd\xe2'
p2010
ssS'_home_argriffi__local_lib_python2_7_site-packages_networkx_algorithms_matching'
p2011
(dp2012
g6
(dp2013
g8
S'_home_argriffi__local_lib_python2_7_site-packages_networkx_algorithms_matching.html'
p2014
sg10
S'/home/argriffi/.local/lib/python2.7/site-packages/networkx/algorithms/matching'
p2015
sg12
g13
(g14
g15
NtRp2016
(dp2017
g18
I1
sg19
I233
sg20
I404
sg21
I0
sg22
I0
sg23
I399
sg24
I233
sbssg25
S'\x9e\xfd\x9d\xf0\x03\x96y;\xe0\x8d\xb0\xa9\xbf\xec\xba$'
p2018
ssS'_home_argriffi__local_lib_python2_7_site-packages_networkx_drawing_nx_pydot'
p2019
(dp2020
g6
(dp2021
g8
S'_home_argriffi__local_lib_python2_7_site-packages_networkx_drawing_nx_pydot.html'
p2022
sg10
S'/home/argriffi/.local/lib/python2.7/site-packages/networkx/drawing/nx_pydot'
p2023
sg12
g13
(g14
g15
NtRp2024
(dp2025
g18
I1
sg19
I54
sg20
I147
sg21
I0
sg22
I0
sg23
I134
sg24
I54
sbssg25
S'\x93\t*\xf0{\xb6\xa8\xd5\xec*>!\xcb\x1c\xc9O'
p2026
ssS'_home_argriffi__local_lib_python2_7_site-packages_networkx_drawing_layout'
p2027
(dp2028
g6
(dp2029
g8
S'_home_argriffi__local_lib_python2_7_site-packages_networkx_drawing_layout.html'
p2030
sg10
S'/home/argriffi/.local/lib/python2.7/site-packages/networkx/drawing/layout'
p2031
sg12
g13
(g14
g15
NtRp2032
(dp2033
g18
I1
sg19
I68
sg20
I233
sg21
I0
sg22
I0
sg23
I218
sg24
I68
sbssg25
S'\xaea\xee\x92\xcd\xf6\x91@O\xd6\xef\x87\x98s\xd2\xd9'
p2034
ssS'_home_argriffi__local_lib_python2_7_site-packages_networkx_algorithms_assortativity_mixing'
p2035
(dp2036
g6
(dp2037
g8
S'_home_argriffi__local_lib_python2_7_site-packages_networkx_algorithms_assortativity_mixing.html'
p2038
sg10
S'/home/argriffi/.local/lib/python2.7/site-packages/networkx/algorithms/assortativity/mixing'
p2039
sg12
g13
(g14
g15
NtRp2040
(dp2041
g18
I1
sg19
I22
sg20
I66
sg21
I0
sg22
I0
sg23
I53
sg24
I22
sbssg25
S'\xa2g5\x8c\x87-\xf5>\x9c\xc3\xd3Ve.\xe2/'
p2042
ssS'build_testenv_lib_python2_7_site-packages_nxmctree_tests_test_feasibility'
p2043
(dp2044
g6
(dp2045
g8
S'build_testenv_lib_python2_7_site-packages_nxmctree_tests_test_feasibility.html'
p2046
sg10
S'build/testenv/lib/python2.7/site-packages/nxmctree/tests/test_feasibility'
p2047
sg12
g13
(g14
g15
NtRp2048
(dp2049
g18
I1
sg19
I18
sg20
I63
sg21
I0
sg22
I0
sg23
I0
sg24
I0
sbssg25
S'\x00TB\x94\x93//|\xbc\x95\xdaY\x8cR\xc3l'
p2050
ssS'_home_argriffi__local_lib_python2_7_site-packages_networkx_algorithms_isolate'
p2051
(dp2052
g6
(dp2053
g8
S'_home_argriffi__local_lib_python2_7_site-packages_networkx_algorithms_isolate.html'
p2054
sg10
S'/home/argriffi/.local/lib/python2.7/site-packages/networkx/algorithms/isolate'
p2055
sg12
g13
(g14
g15
NtRp2056
(dp2057
g18
I1
sg19
I0
sg20
I8
sg21
I0
sg22
I0
sg23
I2
sg24
I0
sbssg25
S'\x99q\x83+%\xbc3\xc5\xa08J\xbd\xd2\xc6\xeb\x05'
p2058
ssS'_home_argriffi__local_lib_python2_7_site-packages_numpy_core_machar'
p2059
(dp2060
g6
(dp2061
g8
S'_home_argriffi__local_lib_python2_7_site-packages_numpy_core_machar.html'
p2062
sg10
S'/home/argriffi/.local/lib/python2.7/site-packages/numpy/core/machar'
p2063
sg12
g13
(g14
g15
NtRp2064
(dp2065
g18
I1
sg19
I70
sg20
I186
sg21
I0
sg22
I2
sg23
I177
sg24
I68
sbssg25
S'6n\xc9\x06\xff\xa0\xe0\xc8?\xa4\x1d,\x1bn\xa6h'
p2066
ssS'_home_argriffi__local_lib_python2_7_site-packages_networkx_algorithms_richclub'
p2067
(dp2068
g6
(dp2069
g8
S'_home_argriffi__local_lib_python2_7_site-packages_networkx_algorithms_richclub.html'
p2070
sg10
S'/home/argriffi/.local/lib/python2.7/site-packages/networkx/algorithms/richclub'
p2071
sg12
g13
(g14
g15
NtRp2072
(dp2073
g18
I1
sg19
I16
sg20
I34
sg21
I0
sg22
I0
sg23
I29
sg24
I16
sbssg25
S'\xdd/\x13\x97yk\x037\x1f\x07\xc5\xd7\x1c\xb33\xcd'
p2074
ssS'_home_argriffi__local_lib_python2_7_site-packages_numpy_polynomial_chebyshev'
p2075
(dp2076
g6
(dp2077
g8
S'_home_argriffi__local_lib_python2_7_site-packages_numpy_polynomial_chebyshev.html'
p2078
sg10
S'/home/argriffi/.local/lib/python2.7/site-packages/numpy/polynomial/chebyshev'
p2079
sg12
g13
(g14
g15
NtRp2080
(dp2081
g18
I1
sg19
I158
sg20
I432
sg21
I0
sg22
I0
sg23
I386
sg24
I158
sbssg25
S':\xea\xb3\xbb\x06AT`w\x8c\xfa\xc9\xb6~\xcaY'
p2082
ssS'_home_argriffi__local_lib_python2_7_site-packages_networkx_algorithms_shortest_paths_unweighted'
p2083
(dp2084
g6
(dp2085
g8
S'_home_argriffi__local_lib_python2_7_site-packages_networkx_algorithms_shortest_paths_unweighted.html'
p2086
sg10
S'/home/argriffi/.local/lib/python2.7/site-packages/networkx/algorithms/shortest_paths/unweighted'
p2087
sg12
g13
(g14
g15
NtRp2088
(dp2089
g18
I1
sg19
I74
sg20
I116
sg21
I0
sg22
I0
sg23
I105
sg24
I74
sbssg25
S'\\\xd0p\x10h\x85\x87\n\xd4\x85Y\xdf\xb2\xb7a\xd9'
p2090
ssS'_home_argriffi__local_lib_python2_7_site-packages_nose_case'
p2091
(dp2092
g6
(dp2093
g8
S'_home_argriffi__local_lib_python2_7_site-packages_nose_case.html'
p2094
sg10
S'/home/argriffi/.local/lib/python2.7/site-packages/nose/case'
p2095
sg12
g13
(g14
g15
NtRp2096
(dp2097
g18
I1
sg19
I44
sg20
I204
sg21
I0
sg22
I6
sg23
I105
sg24
I38
sbssg25
S'\xb4\tn\xdf\x99\x15\x8d*\xe5`Q~4\xd9(\x01'
p2098
ssS'_usr_share_pyshared_pygraphviz_release'
p2099
(dp2100
g6
(dp2101
g8
S'_usr_share_pyshared_pygraphviz_release.html'
p2102
sg10
S'/usr/share/pyshared/pygraphviz/release'
p2103
sg12
g13
(g14
g15
NtRp2104
(dp2105
g18
I1
sg19
I18
sg20
I52
sg21
I0
sg22
I2
sg23
I29
sg24
I16
sbssg25
S'\x14\xf0n\x9b\xf1\xbe6C\xcb\xf9ERhE\xba\xc3'
p2106
ssS'_home_argriffi__local_lib_python2_7_site-packages_networkx_algorithms_mis'
p2107
(dp2108
g6
(dp2109
g8
S'_home_argriffi__local_lib_python2_7_site-packages_networkx_algorithms_mis.html'
p2110
sg10
S'/home/argriffi/.local/lib/python2.7/site-packages/networkx/algorithms/mis'
p2111
sg12
g13
(g14
g15
NtRp2112
(dp2113
g18
I1
sg19
I8
sg20
I21
sg21
I0
sg22
I0
sg23
I15
sg24
I8
sbssg25
S'\xb9\x8a>s#F\x1f\xa0\xe0\x12U\x84\x84z\xf9\x9d'
p2114
ssS'_home_argriffi__local_lib_python2_7_site-packages_nose_plugins_builtin'
p2115
(dp2116
g6
(dp2117
g8
S'_home_argriffi__local_lib_python2_7_site-packages_nose_plugins_builtin.html'
p2118
sg10
S'/home/argriffi/.local/lib/python2.7/site-packages/nose/plugins/builtin'
p2119
sg12
g13
(g14
g15
NtRp2120
(dp2121
g18
I1
sg19
I2
sg20
I12
sg21
I0
sg22
I0
sg23
I4
sg24
I0
sbssg25
S'.V\x9a,\x1br\x12\xf4\xac\xfc\xd6\xc1\xf5\xfeR2'
p2122
ssS'_home_argriffi__local_lib_python2_7_site-packages_nose_plugins_collect'
p2123
(dp2124
g6
(dp2125
g8
S'_home_argriffi__local_lib_python2_7_site-packages_nose_plugins_collect.html'
p2126
sg10
S'/home/argriffi/.local/lib/python2.7/site-packages/nose/plugins/collect'
p2127
sg12
g13
(g14
g15
NtRp2128
(dp2129
g18
I1
sg19
I6
sg20
I42
sg21
I0
sg22
I0
sg23
I24
sg24
I6
sbssg25
S'\xdcB\x8fx\xb1\xae\xf3\xb3A\x1aQQ\xb9\x13IE'
p2130
ssS'_home_argriffi__local_lib_python2_7_site-packages_networkx_algorithms_assortativity_neighbor_degree'
p2131
(dp2132
g6
(dp2133
g8
S'_home_argriffi__local_lib_python2_7_site-packages_networkx_algorithms_assortativity_neighbor_degree.html'
p2134
sg10
S'/home/argriffi/.local/lib/python2.7/site-packages/networkx/algorithms/assortativity/neighbor_degree'
p2135
sg12
g13
(g14
g15
NtRp2136
(dp2137
g18
I1
sg19
I10
sg20
I21
sg21
I0
sg22
I0
sg23
I16
sg24
I10
sbssg25
S'\x10\x11\x92\xb8\x1f\x9f\xd4z\x85\xe8\x14\xe5\xd0F\x7f\xb5'
p2138
ssS'_home_argriffi__local_lib_python2_7_site-packages_numpy_core_getlimits'
p2139
(dp2140
g6
(dp2141
g8
S'_home_argriffi__local_lib_python2_7_site-packages_numpy_core_getlimits.html'
p2142
sg10
S'/home/argriffi/.local/lib/python2.7/site-packages/numpy/core/getlimits'
p2143
sg12
g13
(g14
g15
NtRp2144
(dp2145
g18
I1
sg19
I41
sg20
I132
sg21
I0
sg22
I3
sg23
I94
sg24
I38
sbssg25
S'\xd1\x8fM\xb1\xcb@\xde\xb27Nikc_\xa0\x9a'
p2146
ssS'_home_argriffi__local_lib_python2_7_site-packages_networkx_generators_community'
p2147
(dp2148
g6
(dp2149
g8
S'_home_argriffi__local_lib_python2_7_site-packages_networkx_generators_community.html'
p2150
sg10
S'/home/argriffi/.local/lib/python2.7/site-packages/networkx/generators/community'
p2151
sg12
g13
(g14
g15
NtRp2152
(dp2153
g18
I1
sg19
I58
sg20
I106
sg21
I0
sg22
I0
sg23
I94
sg24
I56
sbssg25
S'\x9a\xc5`\x98Q\x93\x8f\xb8\xd6\r\xa7\xa8B\xd18\xcd'
p2154
ssS'_home_argriffi__local_lib_python2_7_site-packages_networkx_algorithms_isomorphism_vf2userfunc'
p2155
(dp2156
g6
(dp2157
g8
S'_home_argriffi__local_lib_python2_7_site-packages_networkx_algorithms_isomorphism_vf2userfunc.html'
p2158
sg10
S'/home/argriffi/.local/lib/python2.7/site-packages/networkx/algorithms/isomorphism/vf2userfunc'
p2159
sg12
g13
(g14
g15
NtRp2160
(dp2161
g18
I1
sg19
I18
sg20
I50
sg21
I0
sg22
I0
sg23
I36
sg24
I18
sbssg25
S';\x17\xa4\x0fB\xa7\x81\x85\xd7ZH+\xf5\x06I8'
p2162
ssS'_home_argriffi__local_lib_python2_7_site-packages_networkx_algorithms_operators_unary'
p2163
(dp2164
g6
(dp2165
g8
S'_home_argriffi__local_lib_python2_7_site-packages_networkx_algorithms_operators_unary.html'
p2166
sg10
S'/home/argriffi/.local/lib/python2.7/site-packages/networkx/algorithms/operators/unary'
p2167
sg12
g13
(g14
g15
NtRp2168
(dp2169
g18
I1
sg19
I6
sg20
I15
sg21
I0
sg22
I0
sg23
I10
sg24
I6
sbssg25
S"\x05O0\x10\xba\x9a\xe8\xfe\xf2'\x10\x05\xb0\xbc\xfeD"
p2170
ssS'_home_argriffi__local_lib_python2_7_site-packages_nose_importer'
p2171
(dp2172
g6
(dp2173
g8
S'_home_argriffi__local_lib_python2_7_site-packages_nose_importer.html'
p2174
sg10
S'/home/argriffi/.local/lib/python2.7/site-packages/nose/importer'
p2175
sg12
g13
(g14
g15
NtRp2176
(dp2177
g18
I1
sg19
I51
sg20
I92
sg21
I0
sg22
I16
sg23
I14
sg24
I18
sbssg25
S'\x04\x9e\xff\xa4\x1e2\xbb\x13\xc2-5\xd2b+\xba0'
p2178
ssS'_home_argriffi__local_lib_python2_7_site-packages_networkx_algorithms_operators_product'
p2179
(dp2180
g6
(dp2181
g8
S'_home_argriffi__local_lib_python2_7_site-packages_networkx_algorithms_operators_product.html'
p2182
sg10
S'/home/argriffi/.local/lib/python2.7/site-packages/networkx/algorithms/operators/product'
p2183
sg12
g13
(g14
g15
NtRp2184
(dp2185
g18
I1
sg19
I104
sg20
I118
sg21
I0
sg22
I0
sg23
I102
sg24
I104
sbssg25
S'\xec,\x14\xf5\xadU\xf0\xec\xae\xfc5\xb1\xd1-;\xef'
p2186
ssS'_home_argriffi__local_lib_python2_7_site-packages_numpy_core_arrayprint'
p2187
(dp2188
g6
(dp2189
g8
S'_home_argriffi__local_lib_python2_7_site-packages_numpy_core_arrayprint.html'
p2190
sg10
S'/home/argriffi/.local/lib/python2.7/site-packages/numpy/core/arrayprint'
p2191
sg12
g13
(g14
g15
NtRp2192
(dp2193
g18
I1
sg19
I188
sg20
I354
sg21
I0
sg22
I2
sg23
I298
sg24
I186
sbssg25
S'.\xa8\xa4J\xfe\x0b\xaf\xf7\x89\x82\x04\x8cL\xf9D['
p2194
ssS'_home_argriffi__local_lib_python2_7_site-packages_networkx_linalg_laplacianmatrix'
p2195
(dp2196
g6
(dp2197
g8
S'_home_argriffi__local_lib_python2_7_site-packages_networkx_linalg_laplacianmatrix.html'
p2198
sg10
S'/home/argriffi/.local/lib/python2.7/site-packages/networkx/linalg/laplacianmatrix'
p2199
sg12
g13
(g14
g15
NtRp2200
(dp2201
g18
I1
sg19
I22
sg20
I74
sg21
I0
sg22
I0
sg23
I62
sg24
I22
sbssg25
S'\xc2Q\xc1\xdc\x80&\x08C~\xe3\xea\xb0\x81\x0c\x17c'
p2202
ssS'_home_argriffi__local_lib_python2_7_site-packages_networkx_algorithms_centrality___init__'
p2203
(dp2204
g6
(dp2205
g8
S'_home_argriffi__local_lib_python2_7_site-packages_networkx_algorithms_centrality___init__.html'
p2206
sg10
S'/home/argriffi/.local/lib/python2.7/site-packages/networkx/algorithms/centrality/__init__'
p2207
sg12
g13
(g14
g15
NtRp2208
(dp2209
g18
I1
sg19
I0
sg20
I20
sg21
I0
sg22
I0
sg23
I0
sg24
I0
sbssg25
S'2>wV\x81\xbd\xabe\xc9\x8b[=\x81\x14\xbf\x1d'
p2210
ssS'_usr_share_python-support_python-pydot_dot_parser'
p2211
(dp2212
g6
(dp2213
g8
S'_usr_share_python-support_python-pydot_dot_parser.html'
p2214
sg10
S'/usr/share/python-support/python-pydot/dot_parser'
p2215
sg12
g13
(g14
g15
NtRp2216
(dp2217
g18
I1
sg19
I112
sg20
I253
sg21
I0
sg22
I0
sg23
I244
sg24
I112
sbssg25
S"{\x9cY\x8d7\xd8\xc8\xdf>\x17\x9b\xa7'\x9d\xa8Q"
p2218
ssS'_home_argriffi__local_lib_python2_7_site-packages_numpy_lib_ufunclike'
p2219
(dp2220
g6
(dp2221
g8
S'_home_argriffi__local_lib_python2_7_site-packages_numpy_lib_ufunclike.html'
p2222
sg10
S'/home/argriffi/.local/lib/python2.7/site-packages/numpy/lib/ufunclike'
p2223
sg12
g13
(g14
g15
NtRp2224
(dp2225
g18
I1
sg19
I6
sg20
I23
sg21
I0
sg22
I0
sg23
I17
sg24
I6
sbssg25
S'K\xee\xa6\t\x83\xb7\xb2\xdb\xafw\x82i\xc6@\x022'
p2226
ssS'_home_argriffi__local_lib_python2_7_site-packages_networkx_algorithms_isomorphism_isomorph'
p2227
(dp2228
g6
(dp2229
g8
S'_home_argriffi__local_lib_python2_7_site-packages_networkx_algorithms_isomorphism_isomorph.html'
p2230
sg10
S'/home/argriffi/.local/lib/python2.7/site-packages/networkx/algorithms/isomorphism/isomorph'
p2231
sg12
g13
(g14
g15
NtRp2232
(dp2233
g18
I1
sg19
I16
sg20
I50
sg21
I0
sg22
I0
sg23
I39
sg24
I16
sbssg25
S')!\xee\xb2\xce\xd7\xf9`(\xe3\xc7&\xff\xaf!\xb3'
p2234
ssS'_home_argriffi__local_lib_python2_7_site-packages_networkx_generators___init__'
p2235
(dp2236
g6
(dp2237
g8
S'_home_argriffi__local_lib_python2_7_site-packages_networkx_generators___init__.html'
p2238
sg10
S'/home/argriffi/.local/lib/python2.7/site-packages/networkx/generators/__init__'
p2239
sg12
g13
(g14
g15
NtRp2240
(dp2241
g18
I1
sg19
I0
sg20
I16
sg21
I0
sg22
I0
sg23
I0
sg24
I0
sbssg25
S'\xcd(L\xde\xb1v\x98\x130H@1P\xdb;\x9a'
p2242
ssS'_home_argriffi__local_lib_python2_7_site-packages_networkx_external_decorator_decorator2__decorator2'
p2243
(dp2244
g6
(dp2245
g8
S'_home_argriffi__local_lib_python2_7_site-packages_networkx_external_decorator_decorator2__decorator2.html'
p2246
sg10
S'/home/argriffi/.local/lib/python2.7/site-packages/networkx/external/decorator/decorator2/_decorator2'
p2247
sg12
g13
(g14
g15
NtRp2248
(dp2249
g18
I1
sg19
I50
sg20
I130
sg21
I0
sg22
I13
sg23
I26
sg24
I13
sbssg25
S'\x99\xed\xd2\xe7\x95\xb4N-Xb\xe4V\x82>C\\'
p2250
ssS'_home_argriffi__local_lib_python2_7_site-packages_networkx_algorithms_distance_regular'
p2251
(dp2252
g6
(dp2253
g8
S'_home_argriffi__local_lib_python2_7_site-packages_networkx_algorithms_distance_regular.html'
p2254
sg10
S'/home/argriffi/.local/lib/python2.7/site-packages/networkx/algorithms/distance_regular'
p2255
sg12
g13
(g14
g15
NtRp2256
(dp2257
g18
I1
sg19
I12
sg20
I44
sg21
I0
sg22
I0
sg23
I38
sg24
I12
sbssg25
S'\xcf\xb3\x81\x1b\x0bR\xc5\xa6m\x8c\xf6\xd4\x8a\xcc\xe0\x0b'
p2258
ssS'_home_argriffi__local_lib_python2_7_site-packages_networkx_linalg___init__'
p2259
(dp2260
g6
(dp2261
g8
S'_home_argriffi__local_lib_python2_7_site-packages_networkx_linalg___init__.html'
p2262
sg10
S'/home/argriffi/.local/lib/python2.7/site-packages/networkx/linalg/__init__'
p2263
sg12
g13
(g14
g15
NtRp2264
(dp2265
g18
I1
sg19
I0
sg20
I8
sg21
I0
sg22
I0
sg23
I0
sg24
I0
sbssg25
S'\xdek0aAius\x87\x1b\x08vr\xc5@\xad'
p2266
ssS'_home_argriffi__local_lib_python2_7_site-packages_networkx_algorithms_dag'
p2267
(dp2268
g6
(dp2269
g8
S'_home_argriffi__local_lib_python2_7_site-packages_networkx_algorithms_dag.html'
p2270
sg10
S'/home/argriffi/.local/lib/python2.7/site-packages/networkx/algorithms/dag'
p2271
sg12
g13
(g14
g15
NtRp2272
(dp2273
g18
I1
sg19
I52
sg20
I95
sg21
I0
sg22
I5
sg23
I62
sg24
I37
sbssg25
S'\xf8`\x0b\x98e\x02\r\xa2[\xd3\xd4M\x06^\xa7\xf8'
p2274
ssS'_home_argriffi__local_lib_python2_7_site-packages_nose_plugins_isolate'
p2275
(dp2276
g6
(dp2277
g8
S'_home_argriffi__local_lib_python2_7_site-packages_nose_plugins_isolate.html'
p2278
sg10
S'/home/argriffi/.local/lib/python2.7/site-packages/nose/plugins/isolate'
p2279
sg12
g13
(g14
g15
NtRp2280
(dp2281
g18
I1
sg19
I8
sg20
I34
sg21
I0
sg22
I0
sg23
I20
sg24
I8
sbssg25
S'\xe8\xf7\xa7\x13\x8aH\xb1pW1 ,\xee\xa2\x98\xe7'
p2282
ssS'_home_argriffi__local_lib_python2_7_site-packages_numpy_fft___init__'
p2283
(dp2284
g6
(dp2285
g8
S'_home_argriffi__local_lib_python2_7_site-packages_numpy_fft___init__.html'
p2286
sg10
S'/home/argriffi/.local/lib/python2.7/site-packages/numpy/fft/__init__'
p2287
sg12
g13
(g14
g15
NtRp2288
(dp2289
g18
I1
sg19
I0
sg20
I7
sg21
I0
sg22
I0
sg23
I0
sg24
I0
sbssg25
S'\xd1\xfc\xad\xab}k\xa8\xa9\xdf\xbd;C x\xd1\x95'
p2290
ssS'_home_argriffi__local_lib_python2_7_site-packages_numpy_lib_format'
p2291
(dp2292
g6
(dp2293
g8
S'_home_argriffi__local_lib_python2_7_site-packages_numpy_lib_format.html'
p2294
sg10
S'/home/argriffi/.local/lib/python2.7/site-packages/numpy/lib/format'
p2295
sg12
g13
(g14
g15
NtRp2296
(dp2297
g18
I1
sg19
I79
sg20
I181
sg21
I0
sg22
I1
sg23
I160
sg24
I76
sbssg25
S".\x83\xf6\xe77\x94klx\x8e'zJ\x8f\x11\x02"
p2298
ssS'_home_argriffi__local_lib_python2_7_site-packages_numpy_polynomial___init__'
p2299
(dp2300
g6
(dp2301
g8
S'_home_argriffi__local_lib_python2_7_site-packages_numpy_polynomial___init__.html'
p2302
sg10
S'/home/argriffi/.local/lib/python2.7/site-packages/numpy/polynomial/__init__'
p2303
sg12
g13
(g14
g15
NtRp2304
(dp2305
g18
I1
sg19
I0
sg20
I11
sg21
I0
sg22
I0
sg23
I0
sg24
I0
sbssg25
S'\x0eB\x07G\xe0\xde\xa5}9\x8a\x1f\xcen-CW'
p2306
ssS'_home_argriffi__local_lib_python2_7_site-packages_networkx_algorithms_distance_measures'
p2307
(dp2308
g6
(dp2309
g8
S'_home_argriffi__local_lib_python2_7_site-packages_networkx_algorithms_distance_measures.html'
p2310
sg10
S'/home/argriffi/.local/lib/python2.7/site-packages/networkx/algorithms/distance_measures'
p2311
sg12
g13
(g14
g15
NtRp2312
(dp2313
g18
I1
sg19
I16
sg20
I43
sg21
I0
sg22
I0
sg23
I34
sg24
I16
sbssg25
S'\xe8\x14s\xe0\xd8C\xf0\xb3\xd81$\xf1\xc0L\x80\x8b'
p2314
ssS'_home_argriffi__local_lib_python2_7_site-packages_numpy_core___init__'
p2315
(dp2316
g6
(dp2317
g8
S'_home_argriffi__local_lib_python2_7_site-packages_numpy_core___init__.html'
p2318
sg10
S'/home/argriffi/.local/lib/python2.7/site-packages/numpy/core/__init__'
p2319
sg12
g13
(g14
g15
NtRp2320
(dp2321
g18
I1
sg19
I2
sg20
I56
sg21
I0
sg22
I1
sg23
I6
sg24
I1
sbssg25
S'\t\x07\xf7\xfb\x81\xfe\xe8\xf2jm\xe6\xed.*kD'
p2322
ssS'_usr_share_pyshared_pygraphviz_tests___init__'
p2323
(dp2324
g6
(dp2325
g8
S'_usr_share_pyshared_pygraphviz_tests___init__.html'
p2326
sg10
S'/usr/share/pyshared/pygraphviz/tests/__init__'
p2327
sg12
g13
(g14
g15
NtRp2328
(dp2329
g18
I1
sg19
I0
sg20
I1
sg21
I0
sg22
I0
sg23
I0
sg24
I0
sbssg25
S'\xe5\x0bM\xdcy\xcf01\xb9\xecc\xef?\xc2\x85\xac'
p2330
ssS'runtests'
p2331
(dp2332
g6
(dp2333
g8
S'runtests.html'
p2334
sg10
g2331
sg12
g13
(g14
g15
NtRp2335
(dp2336
g18
I1
sg19
I8
sg20
I60
sg21
I0
sg22
I4
sg23
I10
sg24
I4
sbssg25
S'\x9a\x1e\xf6G\xcb\x9e\x0c\x1f\xce\x05\x10\x8b\x82RbN'
p2337
ssS'_home_argriffi__local_lib_python2_7_site-packages_numpy_lib_arrayterator'
p2338
(dp2339
g6
(dp2340
g8
S'_home_argriffi__local_lib_python2_7_site-packages_numpy_lib_arrayterator.html'
p2341
sg10
S'/home/argriffi/.local/lib/python2.7/site-packages/numpy/lib/arrayterator'
p2342
sg12
g13
(g14
g15
NtRp2343
(dp2344
g18
I1
sg19
I34
sg20
I72
sg21
I0
sg22
I0
sg23
I58
sg24
I32
sbssg25
S'\x14\x87\xb9y\xef"\x02\xde\xbb\x90\xbd\x16\x9a;i\xa1'
p2345
ssS'_home_argriffi__local_lib_python2_7_site-packages_nose_plugins___init__'
p2346
(dp2347
g6
(dp2348
g8
S'_home_argriffi__local_lib_python2_7_site-packages_nose_plugins___init__.html'
p2349
sg10
S'/home/argriffi/.local/lib/python2.7/site-packages/nose/plugins/__init__'
p2350
sg12
g13
(g14
g15
NtRp2351
(dp2352
g18
I1
sg19
I2
sg20
I6
sg21
I0
sg22
I1
sg23
I2
sg24
I1
sbssg25
S'\xfcP\xa3\x896%\xb4\xeb\x93\x95_\xdd\xc9\xc4Lr'
p2353
ssS'_home_argriffi__local_lib_python2_7_site-packages_numpy_lib_shape_base'
p2354
(dp2355
g6
(dp2356
g8
S'_home_argriffi__local_lib_python2_7_site-packages_numpy_lib_shape_base.html'
p2357
sg10
S'/home/argriffi/.local/lib/python2.7/site-packages/numpy/lib/shape_base'
p2358
sg12
g13
(g14
g15
NtRp2359
(dp2360
g18
I1
sg19
I80
sg20
I203
sg21
I0
sg22
I0
sg23
I180
sg24
I80
sbssg25
S'\x96\xb9\xf8\xfc\xf1A\x06\xb4\xe3\xc73\x19\xe4\xb7\x99L'
p2361
ssS'_home_argriffi__local_lib_python2_7_site-packages_numpy_core_shape_base'
p2362
(dp2363
g6
(dp2364
g8
S'_home_argriffi__local_lib_python2_7_site-packages_numpy_core_shape_base.html'
p2365
sg10
S'/home/argriffi/.local/lib/python2.7/site-packages/numpy/core/shape_base'
p2366
sg12
g13
(g14
g15
NtRp2367
(dp2368
g18
I1
sg19
I26
sg20
I50
sg21
I0
sg22
I0
sg23
I41
sg24
I26
sbssg25
S'\xde\xfb\xbe\x08\x9ce\xae\x81\xff\xc88hu\x0e\x9b\x18'
p2369
ssS'_home_argriffi__local_lib_python2_7_site-packages_networkx_algorithms_link_analysis_hits_alg'
p2370
(dp2371
g6
(dp2372
g8
S'_home_argriffi__local_lib_python2_7_site-packages_networkx_algorithms_link_analysis_hits_alg.html'
p2373
sg10
S'/home/argriffi/.local/lib/python2.7/site-packages/networkx/algorithms/link_analysis/hits_alg'
p2374
sg12
g13
(g14
g15
NtRp2375
(dp2376
g18
I1
sg19
I42
sg20
I114
sg21
I0
sg22
I0
sg23
I104
sg24
I38
sbssg25
S'\x9c~d\xda\xc2\xaa\xf9\x00e@}\xc1\xf5\xb4\xb9\x99'
p2377
ssS'_home_argriffi__local_lib_python2_7_site-packages_numpy_ma___init__'
p2378
(dp2379
g6
(dp2380
g8
S'_home_argriffi__local_lib_python2_7_site-packages_numpy_ma___init__.html'
p2381
sg10
S'/home/argriffi/.local/lib/python2.7/site-packages/numpy/ma/__init__'
p2382
sg12
g13
(g14
g15
NtRp2383
(dp2384
g18
I1
sg19
I0
sg20
I15
sg21
I0
sg22
I0
sg23
I0
sg24
I0
sbssg25
S'/\xb3\xbe\x0c\xe2J`(\x85\xfdw\xc0H#\xdc\xdf'
p2385
ssS'build_testenv_lib_python2_7_site-packages_nxmctree_puzzles'
p2386
(dp2387
g6
(dp2388
g8
S'build_testenv_lib_python2_7_site-packages_nxmctree_puzzles.html'
p2389
sg10
S'build/testenv/lib/python2.7/site-packages/nxmctree/puzzles'
p2390
sg12
g13
(g14
g15
NtRp2391
(dp2392
g18
I1
sg19
I42
sg20
I82
sg21
I0
sg22
I0
sg23
I0
sg24
I0
sbssg25
S'|\x0e\r\xea\x18kE\x89n\xfe\xbbXf,r\xa0'
p2393
sssS'version'
p2394
S'3.6'
p2395
sS'settings'
p2396
S'3\xcf\xa1\x19.\x88o$\x8cA\xde\xbd\xcd\x06\xa1\x0f'
p2397
sS'format'
p2398
I1
s.